TN:
SF:/usr/include/c++/9/bits/atomic_base.h
DA:541,0
DA:551,0
end_of_record
SF:/usr/include/c++/9/typeinfo
FN:120,_ZNKSt9type_infoeqERKS_
FNDA:4,_ZNKSt9type_infoeqERKS_
DA:120,4
DA:122,4
DA:123,4
DA:124,4
end_of_record
SF:/usr/include/c++/9/bits/allocator.h
FN:137,_ZNSaIN7testing10OnceActionIFiiEEEEC2Ev
FNDA:4,_ZNSaIN7testing10OnceActionIFiiEEEEC2Ev
FN:137,_ZNSaIPKvEC2Ev
FNDA:29,_ZNSaIPKvEC2Ev
FN:137,_ZNSaIN7testing10OnceActionIFiiiiEE23IgnoreIncomingArgumentsINS_8internal12ReturnActionIiE4ImplIiEEEEEC2Ev
FNDA:5,_ZNSaIN7testing10OnceActionIFiiiiEE23IgnoreIncomingArgumentsINS_8internal12ReturnActionIiE4ImplIiEEEEEC2Ev
FN:137,_ZNSaISt13_Rb_tree_nodeIN7testing11ExpectationEEEC2Ev
FNDA:9,_ZNSaISt13_Rb_tree_nodeIN7testing11ExpectationEEEC2Ev
FN:137,_ZNSaIN7testing10OnceActionIFiiEE23IgnoreIncomingArgumentsINS_8internal12ReturnActionIiE4ImplIiEEEEEC2Ev
FNDA:4,_ZNSaIN7testing10OnceActionIFiiEE23IgnoreIncomingArgumentsINS_8internal12ReturnActionIiE4ImplIiEEEEEC2Ev
FN:137,_ZNSaIN7testing10OnceActionIFiiiiEEEEC2Ev
FNDA:5,_ZNSaIN7testing10OnceActionIFiiiiEEEEC2Ev
FN:140,_ZNSaIN7testing10OnceActionIFiiiiEEEEC2ERKS3_
FNDA:15,_ZNSaIN7testing10OnceActionIFiiiiEEEEC2ERKS3_
FN:140,_ZNSaIN7testing10OnceActionIFiiEE23IgnoreIncomingArgumentsINS_8internal12ReturnActionIiE4ImplIiEEEEEC2ERKSA_
FNDA:12,_ZNSaIN7testing10OnceActionIFiiEE23IgnoreIncomingArgumentsINS_8internal12ReturnActionIiE4ImplIiEEEEEC2ERKSA_
FN:140,_ZNSaIN7testing10OnceActionIFiiEEEEC2ERKS3_
FNDA:12,_ZNSaIN7testing10OnceActionIFiiEEEEC2ERKS3_
FN:140,_ZNSaIN7testing10OnceActionIFiiiiEE23IgnoreIncomingArgumentsINS_8internal12ReturnActionIiE4ImplIiEEEEEC2ERKSA_
FNDA:15,_ZNSaIN7testing10OnceActionIFiiiiEE23IgnoreIncomingArgumentsINS_8internal12ReturnActionIiE4ImplIiEEEEEC2ERKSA_
FN:150,_ZNSaISt23_Sp_counted_ptr_inplaceIN7testing10OnceActionIFiiEEESaIS3_ELN9__gnu_cxx12_Lock_policyE2EEEC2IS3_EERKSaIT_E
FNDA:8,_ZNSaISt23_Sp_counted_ptr_inplaceIN7testing10OnceActionIFiiEEESaIS3_ELN9__gnu_cxx12_Lock_policyE2EEEC2IS3_EERKSaIT_E
FN:150,_ZNSaISt23_Sp_counted_ptr_inplaceIN7testing10OnceActionIFiiiiEEESaIS3_ELN9__gnu_cxx12_Lock_policyE2EEEC2IS3_EERKSaIT_E
FNDA:10,_ZNSaISt23_Sp_counted_ptr_inplaceIN7testing10OnceActionIFiiiiEEESaIS3_ELN9__gnu_cxx12_Lock_policyE2EEEC2IS3_EERKSaIT_E
FN:150,_ZNSaISt23_Sp_counted_ptr_inplaceIN7testing10OnceActionIFiiiiEE23IgnoreIncomingArgumentsINS0_8internal12ReturnActionIiE4ImplIiEEEESaISA_ELN9__gnu_cxx12_Lock_policyE2EEEC2ISA_EERKSaIT_E
FNDA:10,_ZNSaISt23_Sp_counted_ptr_inplaceIN7testing10OnceActionIFiiiiEE23IgnoreIncomingArgumentsINS0_8internal12ReturnActionIiE4ImplIiEEEESaISA_ELN9__gnu_cxx12_Lock_policyE2EEEC2ISA_EERKSaIT_E
FN:150,_ZNSaISt23_Sp_counted_ptr_inplaceIN7testing10OnceActionIFiiEE23IgnoreIncomingArgumentsINS0_8internal12ReturnActionIiE4ImplIiEEEESaISA_ELN9__gnu_cxx12_Lock_policyE2EEEC2ISA_EERKSaIT_E
FNDA:8,_ZNSaISt23_Sp_counted_ptr_inplaceIN7testing10OnceActionIFiiEE23IgnoreIncomingArgumentsINS0_8internal12ReturnActionIiE4ImplIiEEEESaISA_ELN9__gnu_cxx12_Lock_policyE2EEEC2ISA_EERKSaIT_E
FN:152,_ZNSaIN7testing10OnceActionIFiiEE23IgnoreIncomingArgumentsINS_8internal12ReturnActionIiE4ImplIiEEEEED2Ev
FNDA:16,_ZNSaIN7testing10OnceActionIFiiEE23IgnoreIncomingArgumentsINS_8internal12ReturnActionIiE4ImplIiEEEEED2Ev
FN:152,_ZNSaIPKvED2Ev
FNDA:29,_ZNSaIPKvED2Ev
FN:152,_ZNSaIN7testing10OnceActionIFiiiiEEEED2Ev
FNDA:20,_ZNSaIN7testing10OnceActionIFiiiiEEEED2Ev
FN:152,_ZNSaISt13_Rb_tree_nodeIN7testing11ExpectationEEED2Ev
FNDA:9,_ZNSaISt13_Rb_tree_nodeIN7testing11ExpectationEEED2Ev
FN:152,_ZNSaIN7testing10OnceActionIFiiEEEED2Ev
FNDA:16,_ZNSaIN7testing10OnceActionIFiiEEEED2Ev
FN:152,_ZNSaIN7testing10OnceActionIFiiiiEE23IgnoreIncomingArgumentsINS_8internal12ReturnActionIiE4ImplIiEEEEED2Ev
FNDA:20,_ZNSaIN7testing10OnceActionIFiiiiEE23IgnoreIncomingArgumentsINS_8internal12ReturnActionIiE4ImplIiEEEEED2Ev
FN:152,_ZNSaISt23_Sp_counted_ptr_inplaceIN7testing10OnceActionIFiiiiEEESaIS3_ELN9__gnu_cxx12_Lock_policyE2EEED2Ev
FNDA:10,_ZNSaISt23_Sp_counted_ptr_inplaceIN7testing10OnceActionIFiiiiEEESaIS3_ELN9__gnu_cxx12_Lock_policyE2EEED2Ev
FN:152,_ZNSaISt23_Sp_counted_ptr_inplaceIN7testing10OnceActionIFiiEEESaIS3_ELN9__gnu_cxx12_Lock_policyE2EEED2Ev
FNDA:8,_ZNSaISt23_Sp_counted_ptr_inplaceIN7testing10OnceActionIFiiEEESaIS3_ELN9__gnu_cxx12_Lock_policyE2EEED2Ev
FN:152,_ZNSaISt23_Sp_counted_ptr_inplaceIN7testing10OnceActionIFiiiiEE23IgnoreIncomingArgumentsINS0_8internal12ReturnActionIiE4ImplIiEEEESaISA_ELN9__gnu_cxx12_Lock_policyE2EEED2Ev
FNDA:10,_ZNSaISt23_Sp_counted_ptr_inplaceIN7testing10OnceActionIFiiiiEE23IgnoreIncomingArgumentsINS0_8internal12ReturnActionIiE4ImplIiEEEESaISA_ELN9__gnu_cxx12_Lock_policyE2EEED2Ev
FN:152,_ZNSaISt23_Sp_counted_ptr_inplaceIN7testing10OnceActionIFiiEE23IgnoreIncomingArgumentsINS0_8internal12ReturnActionIiE4ImplIiEEEESaISA_ELN9__gnu_cxx12_Lock_policyE2EEED2Ev
FNDA:8,_ZNSaISt23_Sp_counted_ptr_inplaceIN7testing10OnceActionIFiiEE23IgnoreIncomingArgumentsINS0_8internal12ReturnActionIiE4ImplIiEEEESaISA_ELN9__gnu_cxx12_Lock_policyE2EEED2Ev
DA:137,4
DA:137,5
DA:137,29
DA:137,4
DA:137,5
DA:137,9
DA:140,12
DA:141,12
DA:140,15
DA:141,15
DA:140,12
DA:141,12
DA:140,15
DA:141,15
DA:150,8
DA:150,10
DA:150,8
DA:150,10
DA:152,8
DA:152,10
DA:152,8
DA:152,10
DA:152,16
DA:152,20
DA:152,16
DA:152,20
DA:152,29
DA:152,9
end_of_record
SF:/usr/include/c++/9/bits/stl_tree.h
FN:146,_ZNSt20_Rb_tree_key_compareIN7testing11Expectation4LessEEC2Ev
FNDA:9,_ZNSt20_Rb_tree_key_compareIN7testing11Expectation4LessEEC2Ev
FN:173,_ZNSt15_Rb_tree_headerC2Ev
FNDA:32,_ZNSt15_Rb_tree_headerC2Ev
FN:206,_ZNSt15_Rb_tree_header8_M_resetEv
FNDA:37,_ZNSt15_Rb_tree_header8_M_resetEv
FN:234,_ZNSt13_Rb_tree_nodeIN7testing11ExpectationEE9_M_valptrEv
FNDA:0,_ZNSt13_Rb_tree_nodeIN7testing11ExpectationEE9_M_valptrEv
FN:238,_ZNKSt13_Rb_tree_nodeIN7testing11ExpectationEE9_M_valptrEv
FNDA:0,_ZNKSt13_Rb_tree_nodeIN7testing11ExpectationEE9_M_valptrEv
FN:345,_ZNSt23_Rb_tree_const_iteratorIN7testing11ExpectationEEC2EPKSt18_Rb_tree_node_base
FNDA:36,_ZNSt23_Rb_tree_const_iteratorIN7testing11ExpectationEEC2EPKSt18_Rb_tree_node_base
FN:360,_ZNKSt23_Rb_tree_const_iteratorIN7testing11ExpectationEEptEv
FNDA:0,_ZNKSt23_Rb_tree_const_iteratorIN7testing11ExpectationEEptEv
FN:364,_ZNSt23_Rb_tree_const_iteratorIN7testing11ExpectationEEppEv
FNDA:0,_ZNSt23_Rb_tree_const_iteratorIN7testing11ExpectationEEppEv
FN:398,_ZStneRKSt23_Rb_tree_const_iteratorIN7testing11ExpectationEES4_
FNDA:18,_ZStneRKSt23_Rb_tree_const_iteratorIN7testing11ExpectationEES4_
FN:566,_ZNSt8_Rb_treeIN7testing11ExpectationES1_St9_IdentityIS1_ENS1_4LessESaIS1_EE21_M_get_Node_allocatorEv
FNDA:0,_ZNSt8_Rb_treeIN7testing11ExpectationES1_St9_IdentityIS1_ENS1_4LessESaIS1_EE21_M_get_Node_allocatorEv
FN:583,_ZNSt8_Rb_treeIN7testing11ExpectationES1_St9_IdentityIS1_ENS1_4LessESaIS1_EE11_M_put_nodeEPSt13_Rb_tree_nodeIS1_E
FNDA:0,_ZNSt8_Rb_treeIN7testing11ExpectationES1_St9_IdentityIS1_ENS1_4LessESaIS1_EE11_M_put_nodeEPSt13_Rb_tree_nodeIS1_E
FN:637,_ZNSt8_Rb_treeIN7testing11ExpectationES1_St9_IdentityIS1_ENS1_4LessESaIS1_EE15_M_destroy_nodeEPSt13_Rb_tree_nodeIS1_E
FNDA:0,_ZNSt8_Rb_treeIN7testing11ExpectationES1_St9_IdentityIS1_ENS1_4LessESaIS1_EE15_M_destroy_nodeEPSt13_Rb_tree_nodeIS1_E
FN:648,_ZNSt8_Rb_treeIN7testing11ExpectationES1_St9_IdentityIS1_ENS1_4LessESaIS1_EE12_M_drop_nodeEPSt13_Rb_tree_nodeIS1_E
FNDA:0,_ZNSt8_Rb_treeIN7testing11ExpectationES1_St9_IdentityIS1_ENS1_4LessESaIS1_EE12_M_drop_nodeEPSt13_Rb_tree_nodeIS1_E
FN:680,_ZNSt8_Rb_treeIN7testing11ExpectationES1_St9_IdentityIS1_ENS1_4LessESaIS1_EE13_Rb_tree_implIS4_Lb1EEC2Ev
FNDA:9,_ZNSt8_Rb_treeIN7testing11ExpectationES1_St9_IdentityIS1_ENS1_4LessESaIS1_EE13_Rb_tree_implIS4_Lb1EEC2Ev
FN:749,_ZNSt8_Rb_treeIN7testing11ExpectationES1_St9_IdentityIS1_ENS1_4LessESaIS1_EE8_M_beginEv
FNDA:9,_ZNSt8_Rb_treeIN7testing11ExpectationES1_St9_IdentityIS1_ENS1_4LessESaIS1_EE8_M_beginEv
FN:794,_ZNSt8_Rb_treeIN7testing11ExpectationES1_St9_IdentityIS1_ENS1_4LessESaIS1_EE7_S_leftEPSt18_Rb_tree_node_base
FNDA:0,_ZNSt8_Rb_treeIN7testing11ExpectationES1_St9_IdentityIS1_ENS1_4LessESaIS1_EE7_S_leftEPSt18_Rb_tree_node_base
FN:802,_ZNSt8_Rb_treeIN7testing11ExpectationES1_St9_IdentityIS1_ENS1_4LessESaIS1_EE8_S_rightEPSt18_Rb_tree_node_base
FNDA:0,_ZNSt8_Rb_treeIN7testing11ExpectationES1_St9_IdentityIS1_ENS1_4LessESaIS1_EE8_S_rightEPSt18_Rb_tree_node_base
FN:944,_ZNSt8_Rb_treeIN7testing11ExpectationES1_St9_IdentityIS1_ENS1_4LessESaIS1_EEC2Ev
FNDA:9,_ZNSt8_Rb_treeIN7testing11ExpectationES1_St9_IdentityIS1_ENS1_4LessESaIS1_EEC2Ev
FN:999,_ZNSt8_Rb_treeIN7testing11ExpectationES1_St9_IdentityIS1_ENS1_4LessESaIS1_EED2Ev
FNDA:9,_ZNSt8_Rb_treeIN7testing11ExpectationES1_St9_IdentityIS1_ENS1_4LessESaIS1_EED2Ev
FN:1015,_ZNKSt8_Rb_treeIN7testing11ExpectationES1_St9_IdentityIS1_ENS1_4LessESaIS1_EE5beginEv
FNDA:18,_ZNKSt8_Rb_treeIN7testing11ExpectationES1_St9_IdentityIS1_ENS1_4LessESaIS1_EE5beginEv
FN:1023,_ZNKSt8_Rb_treeIN7testing11ExpectationES1_St9_IdentityIS1_ENS1_4LessESaIS1_EE3endEv
FNDA:18,_ZNKSt8_Rb_treeIN7testing11ExpectationES1_St9_IdentityIS1_ENS1_4LessESaIS1_EE3endEv
FN:1912,_ZNSt8_Rb_treeIN7testing11ExpectationES1_St9_IdentityIS1_ENS1_4LessESaIS1_EE8_M_eraseEPSt13_Rb_tree_nodeIS1_E
FNDA:9,_ZNSt8_Rb_treeIN7testing11ExpectationES1_St9_IdentityIS1_ENS1_4LessESaIS1_EE8_M_eraseEPSt13_Rb_tree_nodeIS1_E
DA:146,9
DA:150,9
DA:173,32
DA:174,32
DA:175,32
DA:176,32
DA:177,32
DA:206,37
DA:208,37
DA:209,37
DA:210,37
DA:211,37
DA:212,37
DA:234,0
DA:235,0
DA:238,0
DA:239,0
DA:345,36
DA:346,36
DA:360,0
DA:361,0
DA:364,0
DA:366,0
DA:367,0
DA:398,18
DA:399,18
DA:566,0
DA:567,0
DA:583,0
DA:584,0
DA:637,0
DA:642,0
DA:643,0
DA:645,0
DA:648,0
DA:650,0
DA:651,0
DA:652,0
DA:680,9
DA:684,9
DA:685,9
DA:749,9
DA:750,9
DA:794,0
DA:795,0
DA:802,0
DA:803,0
DA:944,9
DA:999,9
DA:1000,9
DA:1015,18
DA:1016,18
DA:1023,18
DA:1024,18
DA:1912,9
DA:1916,9
DA:1918,0
DA:1919,0
DA:1920,0
DA:1921,0
DA:1923,9
end_of_record
SF:/usr/include/c++/9/bits/basic_string.tcc
FN:206,_ZNSt7__cxx1112basic_stringIcSt11char_traitsIcESaIcEE12_M_constructIPcEEvT_S7_St20forward_iterator_tag
FNDA:0,_ZNSt7__cxx1112basic_stringIcSt11char_traitsIcESaIcEE12_M_constructIPcEEvT_S7_St20forward_iterator_tag
FN:206,_ZNSt7__cxx1112basic_stringIcSt11char_traitsIcESaIcEE12_M_constructIPKcEEvT_S8_St20forward_iterator_tag
FNDA:0,_ZNSt7__cxx1112basic_stringIcSt11char_traitsIcESaIcEE12_M_constructIPKcEEvT_S8_St20forward_iterator_tag
DA:206,0
DA:211,0
DA:212,0
DA:215,0
DA:217,0
DA:219,0
DA:220,0
DA:225,0
DA:226,0
DA:228,0
DA:229,0
DA:232,0
DA:233,0
DA:206,0
DA:211,0
DA:212,0
DA:215,0
DA:217,0
DA:219,0
DA:220,0
DA:225,0
DA:226,0
DA:228,0
DA:229,0
DA:232,0
DA:233,0
end_of_record
SF:/mnt/c/Users/user/Desktop/TTECH/my_project/build/_deps/googletest-src/googletest/include/gtest/internal/gtest-internal.h
FN:432,_ZN7testing8internal9GetTypeIdI12MultiplyTestEEPKvv
FNDA:30,_ZN7testing8internal9GetTypeIdI12MultiplyTestEEPKvv
FN:451,_ZN7testing8internal15TestFactoryBaseD0Ev
FNDA:0,_ZN7testing8internal15TestFactoryBaseD0Ev
FN:451,_ZN7testing8internal15TestFactoryBaseD2Ev
FNDA:30,_ZN7testing8internal15TestFactoryBaseD2Ev
FN:458,_ZN7testing8internal15TestFactoryBaseC2Ev
FNDA:30,_ZN7testing8internal15TestFactoryBaseC2Ev
FN:470,_ZN7testing8internal15TestFactoryImplI34MultiplyTest_Multiply_Success_TestE10CreateTestEv
FNDA:1,_ZN7testing8internal15TestFactoryImplI34MultiplyTest_Multiply_Success_TestE10CreateTestEv
FN:470,_ZN7testing8internal15TestFactoryImplI33MultiplyTest_Multiply_ByZero_TestE10CreateTestEv
FNDA:1,_ZN7testing8internal15TestFactoryImplI33MultiplyTest_Multiply_ByZero_TestE10CreateTestEv
FN:470,_ZN7testing8internal15TestFactoryImplI42MultiplyTest_Multiply_NegativeNumbers_TestE10CreateTestEv
FNDA:1,_ZN7testing8internal15TestFactoryImplI42MultiplyTest_Multiply_NegativeNumbers_TestE10CreateTestEv
FN:470,_ZN7testing8internal15TestFactoryImplI46MultiplyTest_Multiply_PositiveAndNegative_TestE10CreateTestEv
FNDA:1,_ZN7testing8internal15TestFactoryImplI46MultiplyTest_Multiply_PositiveAndNegative_TestE10CreateTestEv
FN:470,_ZN7testing8internal15TestFactoryImplI40MultiplyTest_Multiply_SocketFailure_TestE10CreateTestEv
FNDA:1,_ZN7testing8internal15TestFactoryImplI40MultiplyTest_Multiply_SocketFailure_TestE10CreateTestEv
FN:491,_ZN7testing8internal12CodeLocationC2ERKNSt7__cxx1112basic_stringIcSt11char_traitsIcESaIcEEEi
FNDA:30,_ZN7testing8internal12CodeLocationC2ERKNSt7__cxx1112basic_stringIcSt11char_traitsIcESaIcEEEi
FN:504,_ZN7testing8internal19GetNotDefaultOrNullEPFvvES2_
FNDA:120,_ZN7testing8internal19GetNotDefaultOrNullEPFvvES2_
FN:519,_ZN7testing8internal16SuiteApiResolverI12MultiplyTestE19GetSetUpCaseOrSuiteEPKci
FNDA:30,_ZN7testing8internal16SuiteApiResolverI12MultiplyTestE19GetSetUpCaseOrSuiteEPKci
FN:540,_ZN7testing8internal16SuiteApiResolverI12MultiplyTestE22GetTearDownCaseOrSuiteEPKci
FNDA:30,_ZN7testing8internal16SuiteApiResolverI12MultiplyTestE22GetTearDownCaseOrSuiteEPKci
DA:432,30
DA:437,30
DA:451,0
DA:451,30
DA:458,30
DA:470,1
DA:470,1
DA:470,1
DA:470,1
DA:470,1
DA:491,30
DA:492,30
DA:504,120
DA:506,120
DA:519,30
DA:523,30
DA:525,30
DA:527,30
DA:530,0
DA:532,30
DA:540,30
DA:544,30
DA:546,30
DA:548,30
DA:551,0
DA:553,30
end_of_record
SF:/mnt/c/Users/user/Desktop/TTECH/my_project/build/_deps/googletest-src/googlemock/include/gmock/gmock-cardinalities.h
FN:113,_ZNK7testing11Cardinality22IsSaturatedByCallCountEi
FNDA:18,_ZNK7testing11Cardinality22IsSaturatedByCallCountEi
DA:113,18
DA:114,18
end_of_record
SF:/usr/include/c++/9/bits/stl_iterator_base_funcs.h
FN:98,_ZSt10__distanceIPcENSt15iterator_traitsIT_E15difference_typeES2_S2_St26random_access_iterator_tag
FNDA:0,_ZSt10__distanceIPcENSt15iterator_traitsIT_E15difference_typeES2_S2_St26random_access_iterator_tag
FN:98,_ZSt10__distanceIPKcENSt15iterator_traitsIT_E15difference_typeES3_S3_St26random_access_iterator_tag
FNDA:0,_ZSt10__distanceIPKcENSt15iterator_traitsIT_E15difference_typeES3_S3_St26random_access_iterator_tag
FN:138,_ZSt8distanceIPcENSt15iterator_traitsIT_E15difference_typeES2_S2_
FNDA:0,_ZSt8distanceIPcENSt15iterator_traitsIT_E15difference_typeES2_S2_
FN:138,_ZSt8distanceIPKcENSt15iterator_traitsIT_E15difference_typeES3_S3_
FNDA:0,_ZSt8distanceIPKcENSt15iterator_traitsIT_E15difference_typeES3_S3_
DA:98,0
DA:104,0
DA:98,0
DA:104,0
DA:138,0
DA:141,0
DA:142,0
DA:138,0
DA:141,0
DA:142,0
end_of_record
SF:/usr/include/c++/9/bits/vector.tcc
FN:109,_ZNSt6vectorIPKvSaIS1_EE12emplace_backIJS1_EEEvDpOT_
FNDA:9,_ZNSt6vectorIPKvSaIS1_EE12emplace_backIJS1_EEEvDpOT_
FN:426,_ZNSt6vectorIPKvSaIS1_EE17_M_realloc_insertIJS1_EEEvN9__gnu_cxx17__normal_iteratorIPS1_S3_EEDpOT_
FNDA:9,_ZNSt6vectorIPKvSaIS1_EE17_M_realloc_insertIJS1_EEEvN9__gnu_cxx17__normal_iteratorIPS1_S3_EEDpOT_
FN:426,_ZNSt6vectorISt10shared_ptrIN7testing8internal15ExpectationBaseEESaIS4_EE17_M_realloc_insertIJRKS4_EEEvN9__gnu_cxx17__normal_iteratorIPS4_S6_EEDpOT_
FNDA:9,_ZNSt6vectorISt10shared_ptrIN7testing8internal15ExpectationBaseEESaIS4_EE17_M_realloc_insertIJRKS4_EEEvN9__gnu_cxx17__normal_iteratorIPS4_S6_EEDpOT_
DA:109,9
DA:112,9
DA:115,0
DA:117,0
DA:121,9
DA:125,9
DA:426,9
DA:435,9
DA:437,9
DA:438,9
DA:439,9
DA:440,9
DA:441,9
DA:449,9
DA:450,9
DA:456,9
DA:459,9
DA:461,9
DA:462,9
DA:464,9
DA:466,9
DA:467,9
DA:474,0
DA:475,0
DA:477,0
DA:481,0
DA:482,0
DA:485,0
DA:487,0
DA:488,0
DA:489,0
DA:491,0
DA:492,0
DA:493,0
DA:496,9
DA:498,0
DA:500,9
DA:501,9
DA:502,9
DA:503,9
DA:504,9
DA:505,9
DA:426,9
DA:435,9
DA:437,9
DA:438,9
DA:439,9
DA:440,9
DA:441,9
DA:449,9
DA:450,9
DA:456,9
DA:459,9
DA:461,9
DA:462,9
DA:464,9
DA:466,9
DA:467,9
DA:474,0
DA:475,0
DA:477,0
DA:481,0
DA:482,0
DA:485,0
DA:487,0
DA:488,0
DA:489,0
DA:491,0
DA:492,0
DA:493,0
DA:496,9
DA:498,0
DA:500,9
DA:501,9
DA:502,9
DA:503,9
DA:504,9
DA:505,9
end_of_record
SF:/mnt/c/Users/user/Desktop/TTECH/my_project/build/_deps/googletest-src/googletest/include/gtest/gtest-matchers.h
FN:82,_ZN7testing19MatchResultListenerC2EPSo
FNDA:28,_ZN7testing19MatchResultListenerC2EPSo
FN:94,_ZN7testing19MatchResultListener6streamEv
FNDA:28,_ZN7testing19MatchResultListener6streamEv
FN:109,_ZN7testing19MatchResultListenerD2Ev
FNDA:28,_ZN7testing19MatchResultListenerD2Ev
FN:109,_ZN7testing19MatchResultListenerD0Ev
FNDA:0,_ZN7testing19MatchResultListenerD0Ev
FN:115,_ZN7testing25MatcherDescriberInterfaceD2Ev
FNDA:119,_ZN7testing25MatcherDescriberInterfaceD2Ev
FN:115,_ZN7testing25MatcherDescriberInterfaceD0Ev
FNDA:0,_ZN7testing25MatcherDescriberInterfaceD0Ev
FN:130,_ZNK7testing25MatcherDescriberInterface18DescribeNegationToEPSo
FNDA:0,_ZNK7testing25MatcherDescriberInterface18DescribeNegationToEPSo
FN:183,_ZNK7testing8internal5AnyEqclIiiEEbRKT_RKT0_
FNDA:15,_ZNK7testing8internal5AnyEqclIiiEEbRKT_RKT0_
FN:221,_ZN7testing8internal24DummyMatchResultListenerC2Ev
FNDA:28,_ZN7testing8internal24DummyMatchResultListenerC2Ev
FN:244,_ZN7testing8internal17SharedPayloadBase3RefEv
FNDA:0,_ZN7testing8internal17SharedPayloadBase3RefEv
FN:245,_ZN7testing8internal17SharedPayloadBase5UnrefEv
FNDA:0,_ZN7testing8internal17SharedPayloadBase5UnrefEv
FN:268,_ZNK7testing8internal11MatcherBaseIiE15MatchAndExplainERKiPNS_19MatchResultListenerE
FNDA:19,_ZNK7testing8internal11MatcherBaseIiE15MatchAndExplainERKiPNS_19MatchResultListenerE
FN:268,_ZNK7testing8internal11MatcherBaseIRKSt5tupleIJiiiEEE15MatchAndExplainES5_PNS_19MatchResultListenerE
FNDA:5,_ZNK7testing8internal11MatcherBaseIRKSt5tupleIJiiiEEE15MatchAndExplainES5_PNS_19MatchResultListenerE
FN:268,_ZNK7testing8internal11MatcherBaseIRKSt5tupleIJiEEE15MatchAndExplainES5_PNS_19MatchResultListenerE
FNDA:4,_ZNK7testing8internal11MatcherBaseIRKSt5tupleIJiEEE15MatchAndExplainES5_PNS_19MatchResultListenerE
FN:274,_ZNK7testing8internal11MatcherBaseIRKSt5tupleIJiiiEEE7MatchesES5_
FNDA:5,_ZNK7testing8internal11MatcherBaseIRKSt5tupleIJiiiEEE7MatchesES5_
FN:274,_ZNK7testing8internal11MatcherBaseIRKSt5tupleIJiEEE7MatchesES5_
FNDA:4,_ZNK7testing8internal11MatcherBaseIRKSt5tupleIJiEEE7MatchesES5_
FN:274,_ZNK7testing8internal11MatcherBaseIiE7MatchesERKi
FNDA:19,_ZNK7testing8internal11MatcherBaseIiE7MatchesERKi
FN:280,_ZNK7testing8internal11MatcherBaseIiE10DescribeToEPSo
FNDA:0,_ZNK7testing8internal11MatcherBaseIiE10DescribeToEPSo
FN:280,_ZNK7testing8internal11MatcherBaseIRKSt5tupleIJiiiEEE10DescribeToEPSo
FNDA:0,_ZNK7testing8internal11MatcherBaseIRKSt5tupleIJiiiEEE10DescribeToEPSo
FN:280,_ZNK7testing8internal11MatcherBaseIRKSt5tupleIJiEEE10DescribeToEPSo
FNDA:0,_ZNK7testing8internal11MatcherBaseIRKSt5tupleIJiEEE10DescribeToEPSo
FN:286,_ZNK7testing8internal11MatcherBaseIRKSt5tupleIJiiiEEE18DescribeNegationToEPSo
FNDA:0,_ZNK7testing8internal11MatcherBaseIRKSt5tupleIJiiiEEE18DescribeNegationToEPSo
FN:286,_ZNK7testing8internal11MatcherBaseIiE18DescribeNegationToEPSo
FNDA:0,_ZNK7testing8internal11MatcherBaseIiE18DescribeNegationToEPSo
FN:286,_ZNK7testing8internal11MatcherBaseIRKSt5tupleIJiEEE18DescribeNegationToEPSo
FNDA:0,_ZNK7testing8internal11MatcherBaseIRKSt5tupleIJiEEE18DescribeNegationToEPSo
FN:306,_ZN7testing8internal11MatcherBaseIiEC2Ev
FNDA:15,_ZN7testing8internal11MatcherBaseIiEC2Ev
FN:317,_ZN7testing8internal11MatcherBaseIiEC2INS0_9EqMatcherIiEEvEEOT_
FNDA:15,_ZN7testing8internal11MatcherBaseIiEC2INS0_9EqMatcherIiEEvEEOT_
FN:317,_ZN7testing8internal11MatcherBaseIiEC2IRKNS0_15AnythingMatcherEvEEOT_
FNDA:4,_ZN7testing8internal11MatcherBaseIiEC2IRKNS0_15AnythingMatcherEvEEOT_
FN:317,_ZN7testing8internal11MatcherBaseIRKSt5tupleIJiEEEC2IRKNS0_15AnythingMatcherEvEEOT_
FNDA:4,_ZN7testing8internal11MatcherBaseIRKSt5tupleIJiEEEC2IRKNS0_15AnythingMatcherEvEEOT_
FN:317,_ZN7testing8internal11MatcherBaseIRKSt5tupleIJiiiEEEC2IRKNS0_15AnythingMatcherEvEEOT_
FNDA:5,_ZN7testing8internal11MatcherBaseIRKSt5tupleIJiiiEEEC2IRKNS0_15AnythingMatcherEvEEOT_
FN:321,_ZN7testing8internal11MatcherBaseIiEC2ERKS2_
FNDA:57,_ZN7testing8internal11MatcherBaseIiEC2ERKS2_
FN:335,_ZN7testing8internal11MatcherBaseIiEC2EOS2_
FNDA:19,_ZN7testing8internal11MatcherBaseIiEC2EOS2_
FN:340,_ZN7testing8internal11MatcherBaseIiEaSEOS2_
FNDA:15,_ZN7testing8internal11MatcherBaseIiEaSEOS2_
FN:349,_ZN7testing8internal11MatcherBaseIRKSt5tupleIJiEEED0Ev
FNDA:0,_ZN7testing8internal11MatcherBaseIRKSt5tupleIJiEEED0Ev
FN:349,_ZN7testing8internal11MatcherBaseIRKSt5tupleIJiEEED2Ev
FNDA:4,_ZN7testing8internal11MatcherBaseIRKSt5tupleIJiEEED2Ev
FN:349,_ZN7testing8internal11MatcherBaseIRKSt5tupleIJiiiEEED0Ev
FNDA:0,_ZN7testing8internal11MatcherBaseIRKSt5tupleIJiiiEEED0Ev
FN:349,_ZN7testing8internal11MatcherBaseIRKSt5tupleIJiiiEEED2Ev
FNDA:5,_ZN7testing8internal11MatcherBaseIRKSt5tupleIJiiiEEED2Ev
FN:349,_ZN7testing8internal11MatcherBaseIiED0Ev
FNDA:0,_ZN7testing8internal11MatcherBaseIiED0Ev
FN:349,_ZN7testing8internal11MatcherBaseIiED2Ev
FNDA:110,_ZN7testing8internal11MatcherBaseIiED2Ev
FN:363,_ZNK7testing8internal11MatcherBaseIRKSt5tupleIJiiiEEE8IsSharedEv
FNDA:5,_ZNK7testing8internal11MatcherBaseIRKSt5tupleIJiiiEEE8IsSharedEv
FN:363,_ZNK7testing8internal11MatcherBaseIiE8IsSharedEv
FNDA:182,_ZNK7testing8internal11MatcherBaseIiE8IsSharedEv
FN:363,_ZNK7testing8internal11MatcherBaseIRKSt5tupleIJiEEE8IsSharedEv
FNDA:4,_ZNK7testing8internal11MatcherBaseIRKSt5tupleIJiEEE8IsSharedEv
FN:369,_ZN7testing8internal11MatcherBaseIiE19MatchAndExplainImplINS2_11ValuePolicyINS0_9EqMatcherIiEELb1EEEEEDTcldtclsrT_3Getfp_E15MatchAndExplainfp0_clptfp1_L_ZNS_19MatchResultListener6streamEvEEEERKS2_RKiPS9_
FNDA:15,_ZN7testing8internal11MatcherBaseIiE19MatchAndExplainImplINS2_11ValuePolicyINS0_9EqMatcherIiEELb1EEEEEDTcldtclsrT_3Getfp_E15MatchAndExplainfp0_clptfp1_L_ZNS_19MatchResultListener6streamEvEEEERKS2_RKiPS9_
FN:369,_ZN7testing8internal11MatcherBaseIRKSt5tupleIJiEEE19MatchAndExplainImplINS6_11ValuePolicyINS0_15AnythingMatcherELb1EEEEEDTcldtclsrT_3Getfp_E15MatchAndExplainfp0_clptfp1_L_ZNS_19MatchResultListener6streamEvEEEERKS6_S5_PSC_
FNDA:4,_ZN7testing8internal11MatcherBaseIRKSt5tupleIJiEEE19MatchAndExplainImplINS6_11ValuePolicyINS0_15AnythingMatcherELb1EEEEEDTcldtclsrT_3Getfp_E15MatchAndExplainfp0_clptfp1_L_ZNS_19MatchResultListener6streamEvEEEERKS6_S5_PSC_
FN:369,_ZN7testing8internal11MatcherBaseIRKSt5tupleIJiiiEEE19MatchAndExplainImplINS6_11ValuePolicyINS0_15AnythingMatcherELb1EEEEEDTcldtclsrT_3Getfp_E15MatchAndExplainfp0_clptfp1_L_ZNS_19MatchResultListener6streamEvEEEERKS6_S5_PSC_
FNDA:5,_ZN7testing8internal11MatcherBaseIRKSt5tupleIJiiiEEE19MatchAndExplainImplINS6_11ValuePolicyINS0_15AnythingMatcherELb1EEEEEDTcldtclsrT_3Getfp_E15MatchAndExplainfp0_clptfp1_L_ZNS_19MatchResultListener6streamEvEEEERKS6_S5_PSC_
FN:369,_ZN7testing8internal11MatcherBaseIiE19MatchAndExplainImplINS2_11ValuePolicyINS0_15AnythingMatcherELb1EEEEEDTcldtclsrT_3Getfp_E15MatchAndExplainfp0_clptfp1_L_ZNS_19MatchResultListener6streamEvEEEERKS2_RKiPS8_
FNDA:4,_ZN7testing8internal11MatcherBaseIiE19MatchAndExplainImplINS2_11ValuePolicyINS0_15AnythingMatcherELb1EEEEEDTcldtclsrT_3Getfp_E15MatchAndExplainfp0_clptfp1_L_ZNS_19MatchResultListener6streamEvEEEERKS2_RKiPS8_
FN:383,_ZN7testing8internal11MatcherBaseIiE12DescribeImplINS2_11ValuePolicyINS0_15AnythingMatcherELb1EEEEEvRKS2_PSob
FNDA:0,_ZN7testing8internal11MatcherBaseIiE12DescribeImplINS2_11ValuePolicyINS0_15AnythingMatcherELb1EEEEEvRKS2_PSob
FN:383,_ZN7testing8internal11MatcherBaseIRKSt5tupleIJiiiEEE12DescribeImplINS6_11ValuePolicyINS0_15AnythingMatcherELb1EEEEEvRKS6_PSob
FNDA:0,_ZN7testing8internal11MatcherBaseIRKSt5tupleIJiiiEEE12DescribeImplINS6_11ValuePolicyINS0_15AnythingMatcherELb1EEEEEvRKS6_PSob
FN:383,_ZN7testing8internal11MatcherBaseIiE12DescribeImplINS2_11ValuePolicyINS0_9EqMatcherIiEELb1EEEEEvRKS2_PSob
FNDA:0,_ZN7testing8internal11MatcherBaseIiE12DescribeImplINS2_11ValuePolicyINS0_9EqMatcherIiEELb1EEEEEvRKS2_PSob
FN:383,_ZN7testing8internal11MatcherBaseIRKSt5tupleIJiEEE12DescribeImplINS6_11ValuePolicyINS0_15AnythingMatcherELb1EEEEEvRKS6_PSob
FNDA:0,_ZN7testing8internal11MatcherBaseIRKSt5tupleIJiEEE12DescribeImplINS6_11ValuePolicyINS0_15AnythingMatcherELb1EEEEEvRKS6_PSob
FN:393,_ZN7testing8internal11MatcherBaseIiE16GetDescriberImplINS2_11ValuePolicyINS0_15AnythingMatcherELb1EEEEEPKNS_25MatcherDescriberInterfaceERKS2_
FNDA:0,_ZN7testing8internal11MatcherBaseIiE16GetDescriberImplINS2_11ValuePolicyINS0_15AnythingMatcherELb1EEEEEPKNS_25MatcherDescriberInterfaceERKS2_
FN:393,_ZN7testing8internal11MatcherBaseIiE16GetDescriberImplINS2_11ValuePolicyINS0_9EqMatcherIiEELb1EEEEEPKNS_25MatcherDescriberInterfaceERKS2_
FNDA:0,_ZN7testing8internal11MatcherBaseIiE16GetDescriberImplINS2_11ValuePolicyINS0_9EqMatcherIiEELb1EEEEEPKNS_25MatcherDescriberInterfaceERKS2_
FN:393,_ZN7testing8internal11MatcherBaseIRKSt5tupleIJiiiEEE16GetDescriberImplINS6_11ValuePolicyINS0_15AnythingMatcherELb1EEEEEPKNS_25MatcherDescriberInterfaceERKS6_
FNDA:0,_ZN7testing8internal11MatcherBaseIRKSt5tupleIJiiiEEE16GetDescriberImplINS6_11ValuePolicyINS0_15AnythingMatcherELb1EEEEEPKNS_25MatcherDescriberInterfaceERKS6_
FN:393,_ZN7testing8internal11MatcherBaseIRKSt5tupleIJiEEE16GetDescriberImplINS6_11ValuePolicyINS0_15AnythingMatcherELb1EEEEEPKNS_25MatcherDescriberInterfaceERKS6_
FNDA:0,_ZN7testing8internal11MatcherBaseIRKSt5tupleIJiEEE16GetDescriberImplINS6_11ValuePolicyINS0_15AnythingMatcherELb1EEEEEPKNS_25MatcherDescriberInterfaceERKS6_
FN:409,_ZN7testing8internal11MatcherBaseIiE9GetVTableINS2_11ValuePolicyINS0_9EqMatcherIiEELb1EEEEEPKNS2_6VTableEv
FNDA:15,_ZN7testing8internal11MatcherBaseIiE9GetVTableINS2_11ValuePolicyINS0_9EqMatcherIiEELb1EEEEEPKNS2_6VTableEv
FN:409,_ZN7testing8internal11MatcherBaseIRKSt5tupleIJiiiEEE9GetVTableINS6_11ValuePolicyINS0_15AnythingMatcherELb1EEEEEPKNS6_6VTableEv
FNDA:5,_ZN7testing8internal11MatcherBaseIRKSt5tupleIJiiiEEE9GetVTableINS6_11ValuePolicyINS0_15AnythingMatcherELb1EEEEEPKNS6_6VTableEv
FN:409,_ZN7testing8internal11MatcherBaseIiE9GetVTableINS2_11ValuePolicyINS0_15AnythingMatcherELb1EEEEEPKNS2_6VTableEv
FNDA:4,_ZN7testing8internal11MatcherBaseIiE9GetVTableINS2_11ValuePolicyINS0_15AnythingMatcherELb1EEEEEPKNS2_6VTableEv
FN:409,_ZN7testing8internal11MatcherBaseIRKSt5tupleIJiEEE9GetVTableINS6_11ValuePolicyINS0_15AnythingMatcherELb1EEEEEPKNS6_6VTableEv
FNDA:4,_ZN7testing8internal11MatcherBaseIRKSt5tupleIJiEEE9GetVTableINS6_11ValuePolicyINS0_15AnythingMatcherELb1EEEEEPKNS6_6VTableEv
FN:425,_ZN7testing8internal11MatcherBaseIiE7DestroyEv
FNDA:125,_ZN7testing8internal11MatcherBaseIiE7DestroyEv
FN:425,_ZN7testing8internal11MatcherBaseIRKSt5tupleIJiEEE7DestroyEv
FNDA:4,_ZN7testing8internal11MatcherBaseIRKSt5tupleIJiEEE7DestroyEv
FN:425,_ZN7testing8internal11MatcherBaseIRKSt5tupleIJiiiEEE7DestroyEv
FNDA:5,_ZN7testing8internal11MatcherBaseIRKSt5tupleIJiiiEEE7DestroyEv
FN:440,_ZN7testing8internal11MatcherBaseIRKSt5tupleIJiEEE11ValuePolicyINS0_15AnythingMatcherELb1EE3GetERKS6_
FNDA:4,_ZN7testing8internal11MatcherBaseIRKSt5tupleIJiEEE11ValuePolicyINS0_15AnythingMatcherELb1EE3GetERKS6_
FN:440,_ZN7testing8internal11MatcherBaseIRKSt5tupleIJiiiEEE11ValuePolicyINS0_15AnythingMatcherELb1EE3GetERKS6_
FNDA:5,_ZN7testing8internal11MatcherBaseIRKSt5tupleIJiiiEEE11ValuePolicyINS0_15AnythingMatcherELb1EE3GetERKS6_
FN:440,_ZN7testing8internal11MatcherBaseIiE11ValuePolicyINS0_9EqMatcherIiEELb1EE3GetERKS2_
FNDA:15,_ZN7testing8internal11MatcherBaseIiE11ValuePolicyINS0_9EqMatcherIiEELb1EE3GetERKS2_
FN:440,_ZN7testing8internal11MatcherBaseIiE11ValuePolicyINS0_15AnythingMatcherELb1EE3GetERKS2_
FNDA:4,_ZN7testing8internal11MatcherBaseIiE11ValuePolicyINS0_15AnythingMatcherELb1EE3GetERKS2_
FN:447,_ZN7testing8internal11MatcherBaseIRKSt5tupleIJiiiEEE11ValuePolicyINS0_15AnythingMatcherELb1EE4InitERS6_S8_
FNDA:5,_ZN7testing8internal11MatcherBaseIRKSt5tupleIJiiiEEE11ValuePolicyINS0_15AnythingMatcherELb1EE4InitERS6_S8_
FN:447,_ZN7testing8internal11MatcherBaseIiE11ValuePolicyINS0_15AnythingMatcherELb1EE4InitERS2_S4_
FNDA:4,_ZN7testing8internal11MatcherBaseIiE11ValuePolicyINS0_15AnythingMatcherELb1EE4InitERS2_S4_
FN:447,_ZN7testing8internal11MatcherBaseIiE11ValuePolicyINS0_9EqMatcherIiEELb1EE4InitERS2_S5_
FNDA:15,_ZN7testing8internal11MatcherBaseIiE11ValuePolicyINS0_9EqMatcherIiEELb1EE4InitERS2_S5_
FN:447,_ZN7testing8internal11MatcherBaseIRKSt5tupleIJiEEE11ValuePolicyINS0_15AnythingMatcherELb1EE4InitERS6_S8_
FNDA:4,_ZN7testing8internal11MatcherBaseIRKSt5tupleIJiEEE11ValuePolicyINS0_15AnythingMatcherELb1EE4InitERS6_S8_
FN:481,_ZN7testing8internal11MatcherBaseIiE4InitIRKNS0_15AnythingMatcherEEEvOT_
FNDA:4,_ZN7testing8internal11MatcherBaseIiE4InitIRKNS0_15AnythingMatcherEEEvOT_
FN:481,_ZN7testing8internal11MatcherBaseIRKSt5tupleIJiEEE4InitIRKNS0_15AnythingMatcherEEEvOT_
FNDA:4,_ZN7testing8internal11MatcherBaseIRKSt5tupleIJiEEE4InitIRKNS0_15AnythingMatcherEEEvOT_
FN:481,_ZN7testing8internal11MatcherBaseIRKSt5tupleIJiiiEEE4InitIRKNS0_15AnythingMatcherEEEvOT_
FNDA:5,_ZN7testing8internal11MatcherBaseIRKSt5tupleIJiiiEEE4InitIRKNS0_15AnythingMatcherEEEvOT_
FN:481,_ZN7testing8internal11MatcherBaseIiE4InitINS0_9EqMatcherIiEEEEvOT_
FNDA:15,_ZN7testing8internal11MatcherBaseIiE4InitINS0_9EqMatcherIiEEEEvOT_
FN:519,_ZN7testing7MatcherIiEC2IRKNS_8internal15AnythingMatcherEvEEOT_
FNDA:4,_ZN7testing7MatcherIiEC2IRKNS_8internal15AnythingMatcherEvEEOT_
FN:519,_ZN7testing7MatcherIRKSt5tupleIJiEEEC2IRKNS_8internal15AnythingMatcherEvEEOT_
FNDA:4,_ZN7testing7MatcherIRKSt5tupleIJiEEEC2IRKNS_8internal15AnythingMatcherEvEEOT_
FN:519,_ZN7testing7MatcherIRKSt5tupleIJiiiEEEC2IRKNS_8internal15AnythingMatcherEvEEOT_
FNDA:5,_ZN7testing7MatcherIRKSt5tupleIJiiiEEEC2IRKNS_8internal15AnythingMatcherEvEEOT_
FN:519,_ZN7testing7MatcherIiEC2INS_8internal9EqMatcherIiEEvEEOT_
FNDA:15,_ZN7testing7MatcherIiEC2INS_8internal9EqMatcherIiEEvEEOT_
FN:730,_ZN7testing8internal14ComparisonBaseINS0_9EqMatcherIiEEiNS0_5AnyEqEEC2ERKi
FNDA:15,_ZN7testing8internal14ComparisonBaseINS0_9EqMatcherIiEEiNS0_5AnyEqEEC2ERKi
FN:735,_ZNK7testing8internal14ComparisonBaseINS0_9EqMatcherIiEEiNS0_5AnyEqEE15MatchAndExplainIiEEbRKT_PSo
FNDA:15,_ZNK7testing8internal14ComparisonBaseINS0_9EqMatcherIiEEiNS0_5AnyEqEE15MatchAndExplainIiEEbRKT_PSo
FN:738,_ZNK7testing8internal14ComparisonBaseINS0_9EqMatcherIiEEiNS0_5AnyEqEE10DescribeToEPSo
FNDA:0,_ZNK7testing8internal14ComparisonBaseINS0_9EqMatcherIiEEiNS0_5AnyEqEE10DescribeToEPSo
FN:742,_ZNK7testing8internal14ComparisonBaseINS0_9EqMatcherIiEEiNS0_5AnyEqEE18DescribeNegationToEPSo
FNDA:0,_ZNK7testing8internal14ComparisonBaseINS0_9EqMatcherIiEEiNS0_5AnyEqEE18DescribeNegationToEPSo
FN:749,_ZN7testing8internal14ComparisonBaseINS0_9EqMatcherIiEEiNS0_5AnyEqEE6UnwrapIiEERKT_S9_
FNDA:15,_ZN7testing8internal14ComparisonBaseINS0_9EqMatcherIiEEiNS0_5AnyEqEE6UnwrapIiEERKT_S9_
FN:763,_ZN7testing8internal9EqMatcherIiEC2ERKi
FNDA:15,_ZN7testing8internal9EqMatcherIiEC2ERKi
FN:765,_ZN7testing8internal9EqMatcherIiE4DescEv
FNDA:0,_ZN7testing8internal9EqMatcherIiE4DescEv
FN:766,_ZN7testing8internal9EqMatcherIiE11NegatedDescEv
FNDA:0,_ZN7testing8internal9EqMatcherIiE11NegatedDescEv
FN:895,_ZN7testing2EqIiEENS_8internal9EqMatcherIT_EES3_
FNDA:15,_ZN7testing2EqIiEENS_8internal9EqMatcherIT_EES3_
FN:902,_ZN7testing7MatcherIiEC2Ei
FNDA:15,_ZN7testing7MatcherIiEC2Ei
DA:82,28
DA:94,28
DA:109,0
DA:109,28
DA:115,0
DA:115,119
DA:130,0
DA:131,0
DA:132,0
DA:133,0
DA:134,0
DA:183,15
DA:184,15
DA:221,28
DA:244,0
DA:245,0
DA:268,19
DA:269,19
DA:270,19
DA:268,4
DA:269,4
DA:270,4
DA:268,5
DA:269,5
DA:270,5
DA:274,19
DA:275,19
DA:276,38
DA:274,4
DA:275,4
DA:276,8
DA:274,5
DA:275,5
DA:276,10
DA:280,0
DA:281,0
DA:282,0
DA:283,0
DA:280,0
DA:281,0
DA:282,0
DA:283,0
DA:280,0
DA:281,0
DA:282,0
DA:283,0
DA:286,0
DA:287,0
DA:288,0
DA:289,0
DA:286,0
DA:287,0
DA:288,0
DA:289,0
DA:286,0
DA:287,0
DA:288,0
DA:289,0
DA:306,15
DA:317,4
DA:318,4
DA:319,4
DA:317,5
DA:318,5
DA:319,5
DA:317,15
DA:318,15
DA:319,15
DA:317,4
DA:318,4
DA:319,4
DA:321,57
DA:322,57
DA:323,57
DA:324,57
DA:335,19
DA:336,19
DA:337,19
DA:338,19
DA:340,15
DA:341,15
DA:342,15
DA:343,15
DA:344,15
DA:345,15
DA:346,15
DA:349,0
DA:349,4
DA:349,0
DA:349,5
DA:349,0
DA:349,110
DA:363,4
DA:364,4
DA:363,5
DA:364,5
DA:363,182
DA:364,182
DA:369,4
DA:372,4
DA:369,5
DA:372,5
DA:369,15
DA:372,15
DA:369,4
DA:372,4
DA:383,0
DA:385,0
DA:386,0
DA:388,0
DA:390,0
DA:383,0
DA:385,0
DA:386,0
DA:388,0
DA:390,0
DA:383,0
DA:385,0
DA:386,0
DA:388,0
DA:390,0
DA:383,0
DA:385,0
DA:386,0
DA:388,0
DA:390,0
DA:393,0
DA:405,0
DA:393,0
DA:405,0
DA:393,0
DA:405,0
DA:393,0
DA:405,0
DA:409,4
DA:413,4
DA:409,5
DA:413,5
DA:409,15
DA:413,15
DA:409,4
DA:413,4
DA:425,4
DA:426,4
DA:427,0
DA:429,4
DA:425,5
DA:426,5
DA:427,0
DA:429,5
DA:425,125
DA:426,125
DA:427,0
DA:429,125
DA:440,4
DA:443,4
DA:445,4
DA:440,5
DA:443,5
DA:445,5
DA:440,15
DA:443,15
DA:445,15
DA:440,4
DA:443,4
DA:445,4
DA:447,4
DA:448,4
DA:449,4
DA:447,5
DA:448,5
DA:449,5
DA:447,15
DA:448,15
DA:449,15
DA:447,4
DA:448,4
DA:449,4
DA:481,4
DA:484,4
DA:485,4
DA:486,4
DA:481,5
DA:484,5
DA:485,5
DA:486,5
DA:481,15
DA:484,15
DA:485,15
DA:486,15
DA:481,4
DA:484,4
DA:485,4
DA:486,4
DA:519,4
DA:519,5
DA:519,15
DA:519,4
DA:730,15
DA:735,15
DA:736,15
DA:738,0
DA:739,0
DA:740,0
DA:741,0
DA:742,0
DA:743,0
DA:744,0
DA:745,0
DA:749,15
DA:750,15
DA:763,15
DA:764,15
DA:765,0
DA:766,0
DA:895,15
DA:896,15
DA:902,15
DA:903,15
DA:904,15
end_of_record
SF:/mnt/c/Users/user/Desktop/TTECH/my_project/build/_deps/googletest-src/googlemock/include/gmock/internal/gmock-internal-utils.h
FN:228,_ZN7testing8internal6AssertEbPKciRKNSt7__cxx1112basic_stringIcSt11char_traitsIcESaIcEEE
FNDA:20,_ZN7testing8internal6AssertEbPKciRKNSt7__cxx1112basic_stringIcSt11char_traitsIcESaIcEEE
FN:241,_ZN7testing8internal6ExpectEbPKciRKNSt7__cxx1112basic_stringIcSt11char_traitsIcESaIcEEE
FNDA:9,_ZN7testing8internal6ExpectEbPKciRKNSt7__cxx1112basic_stringIcSt11char_traitsIcESaIcEEE
FN:408,_ZN7testing8internal9ApplyImplIRKSt8functionIFiiEESt5tupleIJiEEJLm0EEEEDTclcl7forwardIT_Efp_Espcl3getIXT1_EEcl7forwardIT0_Efp0_EEEEOS9_OSA_NS0_13IndexSequenceIJXspT1_EEEE
FNDA:4,_ZN7testing8internal9ApplyImplIRKSt8functionIFiiEESt5tupleIJiEEJLm0EEEEDTclcl7forwardIT_Efp_Espcl3getIXT1_EEcl7forwardIT0_Efp0_EEEEOS9_OSA_NS0_13IndexSequenceIJXspT1_EEEE
FN:408,_ZN7testing8internal9ApplyImplIRKSt8functionIFiiiiEESt5tupleIJiiiEEJLm0ELm1ELm2EEEEDTclcl7forwardIT_Efp_Espcl3getIXT1_EEcl7forwardIT0_Efp0_EEEEOS9_OSA_NS0_13IndexSequenceIJXspT1_EEEE
FNDA:5,_ZN7testing8internal9ApplyImplIRKSt8functionIFiiiiEESt5tupleIJiiiEEJLm0ELm1ELm2EEEEDTclcl7forwardIT_Efp_Espcl3getIXT1_EEcl7forwardIT0_Efp0_EEEEOS9_OSA_NS0_13IndexSequenceIJXspT1_EEEE
FN:416,_ZN7testing8internal5ApplyIRKSt8functionIFiiEESt5tupleIJiEEEEDTcl9ApplyImplcl7forwardIT_Efp_Ecl7forwardIT0_Efp0_EcvNS0_21MakeIndexSequenceImplIXsrSt10tuple_sizeINSt16remove_referenceISA_E4typeEE5valueEE4typeE_EEEOS9_OSA_
FNDA:4,_ZN7testing8internal5ApplyIRKSt8functionIFiiEESt5tupleIJiEEEEDTcl9ApplyImplcl7forwardIT_Efp_Ecl7forwardIT0_Efp0_EcvNS0_21MakeIndexSequenceImplIXsrSt10tuple_sizeINSt16remove_referenceISA_E4typeEE5valueEE4typeE_EEEOS9_OSA_
FN:416,_ZN7testing8internal5ApplyIRKSt8functionIFiiiiEESt5tupleIJiiiEEEEDTcl9ApplyImplcl7forwardIT_Efp_Ecl7forwardIT0_Efp0_EcvNS0_21MakeIndexSequenceImplIXsrSt10tuple_sizeINSt16remove_referenceISA_E4typeEE5valueEE4typeE_EEEOS9_OSA_
FNDA:5,_ZN7testing8internal5ApplyIRKSt8functionIFiiiiEESt5tupleIJiiiEEEEDTcl9ApplyImplcl7forwardIT_Efp_Ecl7forwardIT0_Efp0_EcvNS0_21MakeIndexSequenceImplIXsrSt10tuple_sizeINSt16remove_referenceISA_E4typeEE5valueEE4typeE_EEEOS9_OSA_
DA:228,20
DA:230,20
DA:231,0
DA:232,0
DA:234,20
DA:241,9
DA:243,9
DA:244,0
DA:245,0
DA:247,9
DA:408,4
DA:411,4
DA:408,5
DA:411,5
DA:416,4
DA:420,8
DA:422,8
DA:416,5
DA:420,10
DA:422,10
end_of_record
SF:/usr/include/c++/9/bits/basic_string.h
FN:247,_ZNSt7__cxx1112basic_stringIcSt11char_traitsIcESaIcEE16_M_construct_auxIPcEEvT_S7_St12__false_type
FNDA:0,_ZNSt7__cxx1112basic_stringIcSt11char_traitsIcESaIcEE16_M_construct_auxIPcEEvT_S7_St12__false_type
FN:247,_ZNSt7__cxx1112basic_stringIcSt11char_traitsIcESaIcEE16_M_construct_auxIPKcEEvT_S8_St12__false_type
FNDA:0,_ZNSt7__cxx1112basic_stringIcSt11char_traitsIcESaIcEE16_M_construct_auxIPKcEEvT_S8_St12__false_type
FN:267,_ZNSt7__cxx1112basic_stringIcSt11char_traitsIcESaIcEE12_M_constructIPcEEvT_S7_
FNDA:0,_ZNSt7__cxx1112basic_stringIcSt11char_traitsIcESaIcEE12_M_constructIPcEEvT_S7_
FN:267,_ZNSt7__cxx1112basic_stringIcSt11char_traitsIcESaIcEE12_M_constructIPKcEEvT_S8_
FNDA:0,_ZNSt7__cxx1112basic_stringIcSt11char_traitsIcESaIcEE12_M_constructIPKcEEvT_S8_
FN:6060,_ZStplIcSt11char_traitsIcESaIcEENSt7__cxx1112basic_stringIT_T0_T1_EERKS8_PKS5_
FNDA:50,_ZStplIcSt11char_traitsIcESaIcEENSt7__cxx1112basic_stringIT_T0_T1_EERKS8_PKS5_
FN:6100,_ZStplIcSt11char_traitsIcESaIcEENSt7__cxx1112basic_stringIT_T0_T1_EEOS8_S9_
FNDA:9,_ZStplIcSt11char_traitsIcESaIcEENSt7__cxx1112basic_stringIT_T0_T1_EEOS8_S9_
FN:6112,_ZStplIcSt11char_traitsIcESaIcEENSt7__cxx1112basic_stringIT_T0_T1_EEPKS5_OS8_
FNDA:0,_ZStplIcSt11char_traitsIcESaIcEENSt7__cxx1112basic_stringIT_T0_T1_EEPKS5_OS8_
FN:6124,_ZStplIcSt11char_traitsIcESaIcEENSt7__cxx1112basic_stringIT_T0_T1_EEOS8_PKS5_
FNDA:225,_ZStplIcSt11char_traitsIcESaIcEENSt7__cxx1112basic_stringIT_T0_T1_EEOS8_PKS5_
FN:6178,_ZSteqIcSt11char_traitsIcESaIcEEbRKNSt7__cxx1112basic_stringIT_T0_T1_EEPKS5_
FNDA:67,_ZSteqIcSt11char_traitsIcESaIcEEbRKNSt7__cxx1112basic_stringIT_T0_T1_EEPKS5_
FN:6216,_ZStneIcSt11char_traitsIcESaIcEEbRKNSt7__cxx1112basic_stringIT_T0_T1_EEPKS5_
FNDA:6,_ZStneIcSt11char_traitsIcESaIcEEbRKNSt7__cxx1112basic_stringIT_T0_T1_EEPKS5_
DA:247,0
DA:251,0
DA:252,0
DA:247,0
DA:251,0
DA:252,0
DA:267,0
DA:270,0
DA:271,0
DA:267,0
DA:270,0
DA:271,0
DA:6060,50
DA:6063,50
DA:6064,50
DA:6065,50
DA:6100,9
DA:6103,9
DA:6104,9
DA:6105,9
DA:6106,0
DA:6107,9
DA:6112,0
DA:6114,0
DA:6124,225
DA:6126,225
DA:6178,67
DA:6180,67
DA:6216,6
DA:6218,6
end_of_record
SF:/usr/include/c++/9/bits/char_traits.h
FN:336,_ZNSt11char_traitsIcE6lengthEPKc
FNDA:0,_ZNSt11char_traitsIcE6lengthEPKc
FN:368,_ZNSt11char_traitsIcE4copyEPcPKcm
FNDA:0,_ZNSt11char_traitsIcE4copyEPcPKcm
DA:336,0
DA:342,0
DA:368,0
DA:370,0
DA:371,0
DA:372,0
end_of_record
SF:/usr/include/c++/9/bits/alloc_traits.h
FN:442,_ZNSt16allocator_traitsISaISt10shared_ptrIN7testing8internal15ExpectationBaseEEEE8allocateERS5_m
FNDA:9,_ZNSt16allocator_traitsISaISt10shared_ptrIN7testing8internal15ExpectationBaseEEEE8allocateERS5_m
FN:442,_ZNSt16allocator_traitsISaIPKvEE8allocateERS2_m
FNDA:9,_ZNSt16allocator_traitsISaIPKvEE8allocateERS2_m
FN:442,_ZNSt16allocator_traitsISaISt23_Sp_counted_ptr_inplaceIN7testing10OnceActionIFiiiiEEESaIS4_ELN9__gnu_cxx12_Lock_policyE2EEEE8allocateERS9_m
FNDA:5,_ZNSt16allocator_traitsISaISt23_Sp_counted_ptr_inplaceIN7testing10OnceActionIFiiiiEEESaIS4_ELN9__gnu_cxx12_Lock_policyE2EEEE8allocateERS9_m
FN:442,_ZNSt16allocator_traitsISaISt23_Sp_counted_ptr_inplaceIN7testing10OnceActionIFiiEE23IgnoreIncomingArgumentsINS1_8internal12ReturnActionIiE4ImplIiEEEESaISB_ELN9__gnu_cxx12_Lock_policyE2EEEE8allocateERSG_m
FNDA:4,_ZNSt16allocator_traitsISaISt23_Sp_counted_ptr_inplaceIN7testing10OnceActionIFiiEE23IgnoreIncomingArgumentsINS1_8internal12ReturnActionIiE4ImplIiEEEESaISB_ELN9__gnu_cxx12_Lock_policyE2EEEE8allocateERSG_m
FN:442,_ZNSt16allocator_traitsISaISt23_Sp_counted_ptr_inplaceIN7testing10OnceActionIFiiEEESaIS4_ELN9__gnu_cxx12_Lock_policyE2EEEE8allocateERS9_m
FNDA:4,_ZNSt16allocator_traitsISaISt23_Sp_counted_ptr_inplaceIN7testing10OnceActionIFiiEEESaIS4_ELN9__gnu_cxx12_Lock_policyE2EEEE8allocateERS9_m
FN:442,_ZNSt16allocator_traitsISaISt23_Sp_counted_ptr_inplaceIN7testing10OnceActionIFiiiiEE23IgnoreIncomingArgumentsINS1_8internal12ReturnActionIiE4ImplIiEEEESaISB_ELN9__gnu_cxx12_Lock_policyE2EEEE8allocateERSG_m
FNDA:5,_ZNSt16allocator_traitsISaISt23_Sp_counted_ptr_inplaceIN7testing10OnceActionIFiiiiEE23IgnoreIncomingArgumentsINS1_8internal12ReturnActionIiE4ImplIiEEEESaISB_ELN9__gnu_cxx12_Lock_policyE2EEEE8allocateERSG_m
FN:468,_ZNSt16allocator_traitsISaIPKvEE10deallocateERS2_PS1_m
FNDA:9,_ZNSt16allocator_traitsISaIPKvEE10deallocateERS2_PS1_m
FN:468,_ZNSt16allocator_traitsISaISt10shared_ptrIN7testing8internal15ExpectationBaseEEEE10deallocateERS5_PS4_m
FNDA:9,_ZNSt16allocator_traitsISaISt10shared_ptrIN7testing8internal15ExpectationBaseEEEE10deallocateERS5_PS4_m
FN:468,_ZNSt16allocator_traitsISaISt23_Sp_counted_ptr_inplaceIN7testing10OnceActionIFiiiiEEESaIS4_ELN9__gnu_cxx12_Lock_policyE2EEEE10deallocateERS9_PS8_m
FNDA:5,_ZNSt16allocator_traitsISaISt23_Sp_counted_ptr_inplaceIN7testing10OnceActionIFiiiiEEESaIS4_ELN9__gnu_cxx12_Lock_policyE2EEEE10deallocateERS9_PS8_m
FN:468,_ZNSt16allocator_traitsISaISt23_Sp_counted_ptr_inplaceIN7testing10OnceActionIFiiEEESaIS4_ELN9__gnu_cxx12_Lock_policyE2EEEE10deallocateERS9_PS8_m
FNDA:4,_ZNSt16allocator_traitsISaISt23_Sp_counted_ptr_inplaceIN7testing10OnceActionIFiiEEESaIS4_ELN9__gnu_cxx12_Lock_policyE2EEEE10deallocateERS9_PS8_m
FN:468,_ZNSt16allocator_traitsISaISt23_Sp_counted_ptr_inplaceIN7testing10OnceActionIFiiiiEE23IgnoreIncomingArgumentsINS1_8internal12ReturnActionIiE4ImplIiEEEESaISB_ELN9__gnu_cxx12_Lock_policyE2EEEE10deallocateERSG_PSF_m
FNDA:5,_ZNSt16allocator_traitsISaISt23_Sp_counted_ptr_inplaceIN7testing10OnceActionIFiiiiEE23IgnoreIncomingArgumentsINS1_8internal12ReturnActionIiE4ImplIiEEEESaISB_ELN9__gnu_cxx12_Lock_policyE2EEEE10deallocateERSG_PSF_m
FN:468,_ZNSt16allocator_traitsISaISt23_Sp_counted_ptr_inplaceIN7testing10OnceActionIFiiEE23IgnoreIncomingArgumentsINS1_8internal12ReturnActionIiE4ImplIiEEEESaISB_ELN9__gnu_cxx12_Lock_policyE2EEEE10deallocateERSG_PSF_m
FNDA:4,_ZNSt16allocator_traitsISaISt23_Sp_counted_ptr_inplaceIN7testing10OnceActionIFiiEE23IgnoreIncomingArgumentsINS1_8internal12ReturnActionIiE4ImplIiEEEESaISB_ELN9__gnu_cxx12_Lock_policyE2EEEE10deallocateERSG_PSF_m
FN:468,_ZNSt16allocator_traitsISaISt13_Rb_tree_nodeIN7testing11ExpectationEEEE10deallocateERS4_PS3_m
FNDA:0,_ZNSt16allocator_traitsISaISt13_Rb_tree_nodeIN7testing11ExpectationEEEE10deallocateERS4_PS3_m
FN:481,_ZNSt16allocator_traitsISaISt10shared_ptrIN7testing8internal15ExpectationBaseEEEE9constructIS4_JS4_EEEvRS5_PT_DpOT0_
FNDA:0,_ZNSt16allocator_traitsISaISt10shared_ptrIN7testing8internal15ExpectationBaseEEEE9constructIS4_JS4_EEEvRS5_PT_DpOT0_
FN:481,_ZNSt16allocator_traitsISaIN7testing10OnceActionIFiiEEEEE9constructIS3_JS3_EEEvRS4_PT_DpOT0_
FNDA:4,_ZNSt16allocator_traitsISaIN7testing10OnceActionIFiiEEEEE9constructIS3_JS3_EEEvRS4_PT_DpOT0_
FN:481,_ZNSt16allocator_traitsISaIN7testing10OnceActionIFiiiiEE23IgnoreIncomingArgumentsINS0_8internal12ReturnActionIiE4ImplIiEEEEEE9constructISA_JSA_EEEvRSB_PT_DpOT0_
FNDA:5,_ZNSt16allocator_traitsISaIN7testing10OnceActionIFiiiiEE23IgnoreIncomingArgumentsINS0_8internal12ReturnActionIiE4ImplIiEEEEEE9constructISA_JSA_EEEvRSB_PT_DpOT0_
FN:481,_ZNSt16allocator_traitsISaIN7testing10OnceActionIFiiiiEEEEE9constructIS3_JS3_EEEvRS4_PT_DpOT0_
FNDA:5,_ZNSt16allocator_traitsISaIN7testing10OnceActionIFiiiiEEEEE9constructIS3_JS3_EEEvRS4_PT_DpOT0_
FN:481,_ZNSt16allocator_traitsISaIN7testing10OnceActionIFiiEE23IgnoreIncomingArgumentsINS0_8internal12ReturnActionIiE4ImplIiEEEEEE9constructISA_JSA_EEEvRSB_PT_DpOT0_
FNDA:4,_ZNSt16allocator_traitsISaIN7testing10OnceActionIFiiEE23IgnoreIncomingArgumentsINS0_8internal12ReturnActionIiE4ImplIiEEEEEE9constructISA_JSA_EEEvRSB_PT_DpOT0_
FN:481,_ZNSt16allocator_traitsISaIPKvEE9constructIS1_JS1_EEEvRS2_PT_DpOT0_
FNDA:9,_ZNSt16allocator_traitsISaIPKvEE9constructIS1_JS1_EEEvRS2_PT_DpOT0_
FN:481,_ZNSt16allocator_traitsISaISt10shared_ptrIN7testing8internal15ExpectationBaseEEEE9constructIS4_JRKS4_EEEvRS5_PT_DpOT0_
FNDA:9,_ZNSt16allocator_traitsISaISt10shared_ptrIN7testing8internal15ExpectationBaseEEEE9constructIS4_JRKS4_EEEvRS5_PT_DpOT0_
FN:494,_ZNSt16allocator_traitsISaIN7testing10OnceActionIFiiEEEEE7destroyIS3_EEvRS4_PT_
FNDA:4,_ZNSt16allocator_traitsISaIN7testing10OnceActionIFiiEEEEE7destroyIS3_EEvRS4_PT_
FN:494,_ZNSt16allocator_traitsISaISt10shared_ptrIN7testing8internal15ExpectationBaseEEEE7destroyIS4_EEvRS5_PT_
FNDA:0,_ZNSt16allocator_traitsISaISt10shared_ptrIN7testing8internal15ExpectationBaseEEEE7destroyIS4_EEvRS5_PT_
FN:494,_ZNSt16allocator_traitsISaISt13_Rb_tree_nodeIN7testing11ExpectationEEEE7destroyIS2_EEvRS4_PT_
FNDA:0,_ZNSt16allocator_traitsISaISt13_Rb_tree_nodeIN7testing11ExpectationEEEE7destroyIS2_EEvRS4_PT_
FN:494,_ZNSt16allocator_traitsISaIPKvEE7destroyIS1_EEvRS2_PT_
FNDA:0,_ZNSt16allocator_traitsISaIPKvEE7destroyIS1_EEvRS2_PT_
FN:494,_ZNSt16allocator_traitsISaIN7testing10OnceActionIFiiEE23IgnoreIncomingArgumentsINS0_8internal12ReturnActionIiE4ImplIiEEEEEE7destroyISA_EEvRSB_PT_
FNDA:4,_ZNSt16allocator_traitsISaIN7testing10OnceActionIFiiEE23IgnoreIncomingArgumentsINS0_8internal12ReturnActionIiE4ImplIiEEEEEE7destroyISA_EEvRSB_PT_
FN:494,_ZNSt16allocator_traitsISaIN7testing10OnceActionIFiiiiEE23IgnoreIncomingArgumentsINS0_8internal12ReturnActionIiE4ImplIiEEEEEE7destroyISA_EEvRSB_PT_
FNDA:5,_ZNSt16allocator_traitsISaIN7testing10OnceActionIFiiiiEE23IgnoreIncomingArgumentsINS0_8internal12ReturnActionIiE4ImplIiEEEEEE7destroyISA_EEvRSB_PT_
FN:494,_ZNSt16allocator_traitsISaIN7testing10OnceActionIFiiiiEEEEE7destroyIS3_EEvRS4_PT_
FNDA:5,_ZNSt16allocator_traitsISaIN7testing10OnceActionIFiiiiEEEEE7destroyIS3_EEvRS4_PT_
FN:504,_ZNSt16allocator_traitsISaISt10shared_ptrIN7testing8internal15ExpectationBaseEEEE8max_sizeERKS5_
FNDA:18,_ZNSt16allocator_traitsISaISt10shared_ptrIN7testing8internal15ExpectationBaseEEEE8max_sizeERKS5_
FN:504,_ZNSt16allocator_traitsISaIPKvEE8max_sizeERKS2_
FNDA:18,_ZNSt16allocator_traitsISaIPKvEE8max_sizeERKS2_
FN:513,_ZNSt16allocator_traitsISaIcEE37select_on_container_copy_constructionERKS0_
FNDA:0,_ZNSt16allocator_traitsISaIcEE37select_on_container_copy_constructionERKS0_
FN:567,_ZSt18__do_alloc_on_swapISaIPKvEEvRT_S4_St17integral_constantIbLb0EE
FNDA:10,_ZSt18__do_alloc_on_swapISaIPKvEEvRT_S4_St17integral_constantIbLb0EE
FN:571,_ZSt15__alloc_on_swapISaIPKvEEvRT_S4_
FNDA:10,_ZSt15__alloc_on_swapISaIPKvEEvRT_S4_
DA:442,4
DA:443,4
DA:442,5
DA:443,5
DA:442,4
DA:443,4
DA:442,5
DA:443,5
DA:442,9
DA:443,9
DA:442,9
DA:443,9
DA:468,4
DA:469,4
DA:468,5
DA:469,5
DA:468,4
DA:469,4
DA:468,5
DA:469,5
DA:468,9
DA:469,9
DA:468,9
DA:469,9
DA:468,0
DA:469,0
DA:481,4
DA:483,4
DA:481,5
DA:483,5
DA:481,0
DA:483,0
DA:481,4
DA:483,4
DA:481,5
DA:483,5
DA:481,9
DA:483,9
DA:481,9
DA:483,9
DA:494,5
DA:496,5
DA:494,4
DA:496,4
DA:494,5
DA:496,5
DA:494,4
DA:496,4
DA:494,0
DA:496,0
DA:494,0
DA:496,0
DA:494,0
DA:496,0
DA:504,18
DA:505,18
DA:504,18
DA:505,18
DA:513,0
DA:514,0
DA:567,10
DA:568,10
DA:571,10
DA:575,10
DA:576,10
end_of_record
SF:/usr/include/c++/9/bits/stl_algobase.h
FN:198,_ZSt3minImERKT_S2_S2_
FNDA:310,_ZSt3minImERKT_S2_S2_
FN:222,_ZSt3maxImERKT_S2_S2_
FNDA:137,_ZSt3maxImERKT_S2_S2_
FN:280,_ZSt12__niter_baseIPPKvET_S3_
FNDA:54,_ZSt12__niter_baseIPPKvET_S3_
FN:280,_ZSt12__niter_baseIPSt10shared_ptrIN7testing8internal15ExpectationBaseEEET_S6_
FNDA:54,_ZSt12__niter_baseIPSt10shared_ptrIN7testing8internal15ExpectationBaseEEET_S6_
FN:295,_ZSt12__niter_wrapIPPKvET_RKS3_S3_
FNDA:0,_ZSt12__niter_wrapIPPKvET_RKS3_S3_
FN:375,_ZNSt11__copy_moveILb1ELb1ESt26random_access_iterator_tagE8__copy_mIPKvEEPT_PKS5_S8_S6_
FNDA:0,_ZNSt11__copy_moveILb1ELb1ESt26random_access_iterator_tagE8__copy_mIPKvEEPT_PKS5_S8_S6_
FN:393,_ZSt13__copy_move_aILb1EPPKvS2_ET1_T0_S4_S3_
FNDA:0,_ZSt13__copy_move_aILb1EPPKvS2_ET1_T0_S4_S3_
FN:438,_ZSt14__copy_move_a2ILb1EPPKvS2_ET1_T0_S4_S3_
FNDA:0,_ZSt14__copy_move_a2ILb1EPPKvS2_ET1_T0_S4_S3_
FN:465,_ZSt4copyISt13move_iteratorIPPKvES3_ET0_T_S6_S5_
FNDA:0,_ZSt4copyISt13move_iteratorIPPKvES3_ET0_T_S6_S5_
DA:198,310
DA:203,310
DA:204,0
DA:205,310
DA:222,137
DA:227,137
DA:228,78
DA:229,59
DA:280,54
DA:282,54
DA:280,54
DA:282,54
DA:295,0
DA:296,0
DA:375,0
DA:384,0
DA:385,0
DA:386,0
DA:387,0
DA:393,0
DA:398,0
DA:404,0
DA:438,0
DA:440,0
DA:443,0
DA:465,0
DA:474,0
end_of_record
SF:/usr/include/c++/9/ext/atomicity.h
FN:48,_ZN9__gnu_cxxL18__exchange_and_addEPVii
FNDA:153,_ZN9__gnu_cxxL18__exchange_and_addEPVii
FN:52,_ZN9__gnu_cxxL12__atomic_addEPVii
FNDA:45,_ZN9__gnu_cxxL12__atomic_addEPVii
FN:65,_ZN9__gnu_cxxL25__exchange_and_add_singleEPii
FNDA:0,_ZN9__gnu_cxxL25__exchange_and_add_singleEPii
FN:73,_ZN9__gnu_cxxL19__atomic_add_singleEPii
FNDA:0,_ZN9__gnu_cxxL19__atomic_add_singleEPii
FN:78,_ZN9__gnu_cxxL27__exchange_and_add_dispatchEPii
FNDA:153,_ZN9__gnu_cxxL27__exchange_and_add_dispatchEPii
FN:92,_ZN9__gnu_cxxL21__atomic_add_dispatchEPii
FNDA:45,_ZN9__gnu_cxxL21__atomic_add_dispatchEPii
DA:48,153
DA:49,153
DA:52,45
DA:53,45
DA:65,0
DA:67,0
DA:68,0
DA:69,0
DA:73,0
DA:74,0
DA:78,153
DA:81,153
DA:82,153
DA:84,0
DA:92,45
DA:95,45
DA:96,45
DA:98,0
DA:102,45
end_of_record
SF:/usr/include/c++/9/ext/alloc_traits.h
FN:97,_ZN9__gnu_cxx14__alloc_traitsISaIcEcE17_S_select_on_copyERKS1_
FNDA:0,_ZN9__gnu_cxx14__alloc_traitsISaIcEcE17_S_select_on_copyERKS1_
FN:100,_ZN9__gnu_cxx14__alloc_traitsISaIPKvES2_E10_S_on_swapERS3_S5_
FNDA:10,_ZN9__gnu_cxx14__alloc_traitsISaIPKvES2_E10_S_on_swapERS3_S5_
DA:97,0
DA:98,0
DA:100,10
DA:101,10
end_of_record
SF:/usr/include/c++/9/bits/shared_ptr_base.h
FN:117,_ZNSt16_Sp_counted_baseILN9__gnu_cxx12_Lock_policyE2EEC2Ev
FNDA:54,_ZNSt16_Sp_counted_baseILN9__gnu_cxx12_Lock_policyE2EEC2Ev
FN:121,_ZNSt16_Sp_counted_baseILN9__gnu_cxx12_Lock_policyE2EED0Ev
FNDA:0,_ZNSt16_Sp_counted_baseILN9__gnu_cxx12_Lock_policyE2EED0Ev
FN:121,_ZNSt16_Sp_counted_baseILN9__gnu_cxx12_Lock_policyE2EED2Ev
FNDA:54,_ZNSt16_Sp_counted_baseILN9__gnu_cxx12_Lock_policyE2EED2Ev
FN:131,_ZNSt16_Sp_counted_baseILN9__gnu_cxx12_Lock_policyE2EE10_M_destroyEv
FNDA:0,_ZNSt16_Sp_counted_baseILN9__gnu_cxx12_Lock_policyE2EE10_M_destroyEv
FN:138,_ZNSt16_Sp_counted_baseILN9__gnu_cxx12_Lock_policyE2EE15_M_add_ref_copyEv
FNDA:45,_ZNSt16_Sp_counted_baseILN9__gnu_cxx12_Lock_policyE2EE15_M_add_ref_copyEv
FN:148,_ZNSt16_Sp_counted_baseILN9__gnu_cxx12_Lock_policyE2EE10_M_releaseEv
FNDA:99,_ZNSt16_Sp_counted_baseILN9__gnu_cxx12_Lock_policyE2EE10_M_releaseEv
FN:372,_ZNSt15_Sp_counted_ptrIPN7testing8internal12ReturnActionIiE4ImplIiE5StateELN9__gnu_cxx12_Lock_policyE2EEC2ES7_
FNDA:9,_ZNSt15_Sp_counted_ptrIPN7testing8internal12ReturnActionIiE4ImplIiE5StateELN9__gnu_cxx12_Lock_policyE2EEC2ES7_
FN:372,_ZNSt15_Sp_counted_ptrIPN7testing8internal16TypedExpectationIFiiiiEEELN9__gnu_cxx12_Lock_policyE2EEC2ES5_
FNDA:5,_ZNSt15_Sp_counted_ptrIPN7testing8internal16TypedExpectationIFiiiiEEELN9__gnu_cxx12_Lock_policyE2EEC2ES5_
FN:372,_ZNSt15_Sp_counted_ptrIPN7testing8internal16TypedExpectationIFiiEEELN9__gnu_cxx12_Lock_policyE2EEC2ES5_
FNDA:4,_ZNSt15_Sp_counted_ptrIPN7testing8internal16TypedExpectationIFiiEEELN9__gnu_cxx12_Lock_policyE2EEC2ES5_
FN:376,_ZNSt15_Sp_counted_ptrIPN7testing8internal16TypedExpectationIFiiiiEEELN9__gnu_cxx12_Lock_policyE2EE10_M_disposeEv
FNDA:5,_ZNSt15_Sp_counted_ptrIPN7testing8internal16TypedExpectationIFiiiiEEELN9__gnu_cxx12_Lock_policyE2EE10_M_disposeEv
FN:376,_ZNSt15_Sp_counted_ptrIPN7testing8internal12ReturnActionIiE4ImplIiE5StateELN9__gnu_cxx12_Lock_policyE2EE10_M_disposeEv
FNDA:9,_ZNSt15_Sp_counted_ptrIPN7testing8internal12ReturnActionIiE4ImplIiE5StateELN9__gnu_cxx12_Lock_policyE2EE10_M_disposeEv
FN:376,_ZNSt15_Sp_counted_ptrIPN7testing8internal16TypedExpectationIFiiEEELN9__gnu_cxx12_Lock_policyE2EE10_M_disposeEv
FNDA:4,_ZNSt15_Sp_counted_ptrIPN7testing8internal16TypedExpectationIFiiEEELN9__gnu_cxx12_Lock_policyE2EE10_M_disposeEv
FN:380,_ZNSt15_Sp_counted_ptrIPN7testing8internal16TypedExpectationIFiiiiEEELN9__gnu_cxx12_Lock_policyE2EE10_M_destroyEv
FNDA:5,_ZNSt15_Sp_counted_ptrIPN7testing8internal16TypedExpectationIFiiiiEEELN9__gnu_cxx12_Lock_policyE2EE10_M_destroyEv
FN:380,_ZNSt15_Sp_counted_ptrIPN7testing8internal12ReturnActionIiE4ImplIiE5StateELN9__gnu_cxx12_Lock_policyE2EE10_M_destroyEv
FNDA:9,_ZNSt15_Sp_counted_ptrIPN7testing8internal12ReturnActionIiE4ImplIiE5StateELN9__gnu_cxx12_Lock_policyE2EE10_M_destroyEv
FN:380,_ZNSt15_Sp_counted_ptrIPN7testing8internal16TypedExpectationIFiiEEELN9__gnu_cxx12_Lock_policyE2EE10_M_destroyEv
FNDA:4,_ZNSt15_Sp_counted_ptrIPN7testing8internal16TypedExpectationIFiiEEELN9__gnu_cxx12_Lock_policyE2EE10_M_destroyEv
FN:384,_ZNSt15_Sp_counted_ptrIPN7testing8internal12ReturnActionIiE4ImplIiE5StateELN9__gnu_cxx12_Lock_policyE2EE14_M_get_deleterERKSt9type_info
FNDA:0,_ZNSt15_Sp_counted_ptrIPN7testing8internal12ReturnActionIiE4ImplIiE5StateELN9__gnu_cxx12_Lock_policyE2EE14_M_get_deleterERKSt9type_info
FN:384,_ZNSt15_Sp_counted_ptrIPN7testing8internal16TypedExpectationIFiiEEELN9__gnu_cxx12_Lock_policyE2EE14_M_get_deleterERKSt9type_info
FNDA:0,_ZNSt15_Sp_counted_ptrIPN7testing8internal16TypedExpectationIFiiEEELN9__gnu_cxx12_Lock_policyE2EE14_M_get_deleterERKSt9type_info
FN:384,_ZNSt15_Sp_counted_ptrIPN7testing8internal16TypedExpectationIFiiiiEEELN9__gnu_cxx12_Lock_policyE2EE14_M_get_deleterERKSt9type_info
FNDA:0,_ZNSt15_Sp_counted_ptrIPN7testing8internal16TypedExpectationIFiiiiEEELN9__gnu_cxx12_Lock_policyE2EE14_M_get_deleterERKSt9type_info
FN:414,_ZNSt14_Sp_ebo_helperILi0ESaIN7testing10OnceActionIFiiEE23IgnoreIncomingArgumentsINS0_8internal12ReturnActionIiE4ImplIiEEEEELb1EEC2ERKSB_
FNDA:4,_ZNSt14_Sp_ebo_helperILi0ESaIN7testing10OnceActionIFiiEE23IgnoreIncomingArgumentsINS0_8internal12ReturnActionIiE4ImplIiEEEEELb1EEC2ERKSB_
FN:414,_ZNSt14_Sp_ebo_helperILi0ESaIN7testing10OnceActionIFiiiiEEEELb1EEC2ERKS4_
FNDA:5,_ZNSt14_Sp_ebo_helperILi0ESaIN7testing10OnceActionIFiiiiEEEELb1EEC2ERKS4_
FN:414,_ZNSt14_Sp_ebo_helperILi0ESaIN7testing10OnceActionIFiiEEEELb1EEC2ERKS4_
FNDA:4,_ZNSt14_Sp_ebo_helperILi0ESaIN7testing10OnceActionIFiiEEEELb1EEC2ERKS4_
FN:414,_ZNSt14_Sp_ebo_helperILi0ESaIN7testing10OnceActionIFiiiiEE23IgnoreIncomingArgumentsINS0_8internal12ReturnActionIiE4ImplIiEEEEELb1EEC2ERKSB_
FNDA:5,_ZNSt14_Sp_ebo_helperILi0ESaIN7testing10OnceActionIFiiiiEE23IgnoreIncomingArgumentsINS0_8internal12ReturnActionIiE4ImplIiEEEEELb1EEC2ERKSB_
FN:418,_ZNSt14_Sp_ebo_helperILi0ESaIN7testing10OnceActionIFiiiiEEEELb1EE6_S_getERS5_
FNDA:10,_ZNSt14_Sp_ebo_helperILi0ESaIN7testing10OnceActionIFiiiiEEEELb1EE6_S_getERS5_
FN:418,_ZNSt14_Sp_ebo_helperILi0ESaIN7testing10OnceActionIFiiEE23IgnoreIncomingArgumentsINS0_8internal12ReturnActionIiE4ImplIiEEEEELb1EE6_S_getERSC_
FNDA:8,_ZNSt14_Sp_ebo_helperILi0ESaIN7testing10OnceActionIFiiEE23IgnoreIncomingArgumentsINS0_8internal12ReturnActionIiE4ImplIiEEEEELb1EE6_S_getERSC_
FN:418,_ZNSt14_Sp_ebo_helperILi0ESaIN7testing10OnceActionIFiiiiEE23IgnoreIncomingArgumentsINS0_8internal12ReturnActionIiE4ImplIiEEEEELb1EE6_S_getERSC_
FNDA:10,_ZNSt14_Sp_ebo_helperILi0ESaIN7testing10OnceActionIFiiiiEE23IgnoreIncomingArgumentsINS0_8internal12ReturnActionIiE4ImplIiEEEEELb1EE6_S_getERSC_
FN:418,_ZNSt14_Sp_ebo_helperILi0ESaIN7testing10OnceActionIFiiEEEELb1EE6_S_getERS5_
FNDA:8,_ZNSt14_Sp_ebo_helperILi0ESaIN7testing10OnceActionIFiiEEEELb1EE6_S_getERS5_
FN:508,_ZNSt19_Sp_make_shared_tag5_S_tiEv
FNDA:0,_ZNSt19_Sp_make_shared_tag5_S_tiEv
FN:531,_ZNSt23_Sp_counted_ptr_inplaceIN7testing10OnceActionIFiiiiEEESaIS3_ELN9__gnu_cxx12_Lock_policyE2EE5_ImplC2ES4_
FNDA:5,_ZNSt23_Sp_counted_ptr_inplaceIN7testing10OnceActionIFiiiiEEESaIS3_ELN9__gnu_cxx12_Lock_policyE2EE5_ImplC2ES4_
FN:531,_ZNSt23_Sp_counted_ptr_inplaceIN7testing10OnceActionIFiiEEESaIS3_ELN9__gnu_cxx12_Lock_policyE2EE5_ImplC2ES4_
FNDA:4,_ZNSt23_Sp_counted_ptr_inplaceIN7testing10OnceActionIFiiEEESaIS3_ELN9__gnu_cxx12_Lock_policyE2EE5_ImplC2ES4_
FN:531,_ZNSt23_Sp_counted_ptr_inplaceIN7testing10OnceActionIFiiEE23IgnoreIncomingArgumentsINS0_8internal12ReturnActionIiE4ImplIiEEEESaISA_ELN9__gnu_cxx12_Lock_policyE2EE5_ImplC2ESB_
FNDA:4,_ZNSt23_Sp_counted_ptr_inplaceIN7testing10OnceActionIFiiEE23IgnoreIncomingArgumentsINS0_8internal12ReturnActionIiE4ImplIiEEEESaISA_ELN9__gnu_cxx12_Lock_policyE2EE5_ImplC2ESB_
FN:531,_ZNSt23_Sp_counted_ptr_inplaceIN7testing10OnceActionIFiiiiEE23IgnoreIncomingArgumentsINS0_8internal12ReturnActionIiE4ImplIiEEEESaISA_ELN9__gnu_cxx12_Lock_policyE2EE5_ImplC2ESB_
FNDA:5,_ZNSt23_Sp_counted_ptr_inplaceIN7testing10OnceActionIFiiiiEE23IgnoreIncomingArgumentsINS0_8internal12ReturnActionIiE4ImplIiEEEESaISA_ELN9__gnu_cxx12_Lock_policyE2EE5_ImplC2ESB_
FN:533,_ZNSt23_Sp_counted_ptr_inplaceIN7testing10OnceActionIFiiiiEEESaIS3_ELN9__gnu_cxx12_Lock_policyE2EE5_Impl8_M_allocEv
FNDA:10,_ZNSt23_Sp_counted_ptr_inplaceIN7testing10OnceActionIFiiiiEEESaIS3_ELN9__gnu_cxx12_Lock_policyE2EE5_Impl8_M_allocEv
FN:533,_ZNSt23_Sp_counted_ptr_inplaceIN7testing10OnceActionIFiiEEESaIS3_ELN9__gnu_cxx12_Lock_policyE2EE5_Impl8_M_allocEv
FNDA:8,_ZNSt23_Sp_counted_ptr_inplaceIN7testing10OnceActionIFiiEEESaIS3_ELN9__gnu_cxx12_Lock_policyE2EE5_Impl8_M_allocEv
FN:533,_ZNSt23_Sp_counted_ptr_inplaceIN7testing10OnceActionIFiiiiEE23IgnoreIncomingArgumentsINS0_8internal12ReturnActionIiE4ImplIiEEEESaISA_ELN9__gnu_cxx12_Lock_policyE2EE5_Impl8_M_allocEv
FNDA:10,_ZNSt23_Sp_counted_ptr_inplaceIN7testing10OnceActionIFiiiiEE23IgnoreIncomingArgumentsINS0_8internal12ReturnActionIiE4ImplIiEEEESaISA_ELN9__gnu_cxx12_Lock_policyE2EE5_Impl8_M_allocEv
FN:533,_ZNSt23_Sp_counted_ptr_inplaceIN7testing10OnceActionIFiiEE23IgnoreIncomingArgumentsINS0_8internal12ReturnActionIiE4ImplIiEEEESaISA_ELN9__gnu_cxx12_Lock_policyE2EE5_Impl8_M_allocEv
FNDA:8,_ZNSt23_Sp_counted_ptr_inplaceIN7testing10OnceActionIFiiEE23IgnoreIncomingArgumentsINS0_8internal12ReturnActionIiE4ImplIiEEEESaISA_ELN9__gnu_cxx12_Lock_policyE2EE5_Impl8_M_allocEv
FN:543,_ZNSt23_Sp_counted_ptr_inplaceIN7testing10OnceActionIFiiiiEEESaIS3_ELN9__gnu_cxx12_Lock_policyE2EEC2IJS3_EEES4_DpOT_
FNDA:5,_ZNSt23_Sp_counted_ptr_inplaceIN7testing10OnceActionIFiiiiEEESaIS3_ELN9__gnu_cxx12_Lock_policyE2EEC2IJS3_EEES4_DpOT_
FN:543,_ZNSt23_Sp_counted_ptr_inplaceIN7testing10OnceActionIFiiEEESaIS3_ELN9__gnu_cxx12_Lock_policyE2EEC2IJS3_EEES4_DpOT_
FNDA:4,_ZNSt23_Sp_counted_ptr_inplaceIN7testing10OnceActionIFiiEEESaIS3_ELN9__gnu_cxx12_Lock_policyE2EEC2IJS3_EEES4_DpOT_
FN:543,_ZNSt23_Sp_counted_ptr_inplaceIN7testing10OnceActionIFiiiiEE23IgnoreIncomingArgumentsINS0_8internal12ReturnActionIiE4ImplIiEEEESaISA_ELN9__gnu_cxx12_Lock_policyE2EEC2IJSA_EEESB_DpOT_
FNDA:5,_ZNSt23_Sp_counted_ptr_inplaceIN7testing10OnceActionIFiiiiEE23IgnoreIncomingArgumentsINS0_8internal12ReturnActionIiE4ImplIiEEEESaISA_ELN9__gnu_cxx12_Lock_policyE2EEC2IJSA_EEESB_DpOT_
FN:543,_ZNSt23_Sp_counted_ptr_inplaceIN7testing10OnceActionIFiiEE23IgnoreIncomingArgumentsINS0_8internal12ReturnActionIiE4ImplIiEEEESaISA_ELN9__gnu_cxx12_Lock_policyE2EEC2IJSA_EEESB_DpOT_
FNDA:4,_ZNSt23_Sp_counted_ptr_inplaceIN7testing10OnceActionIFiiEE23IgnoreIncomingArgumentsINS0_8internal12ReturnActionIiE4ImplIiEEEESaISA_ELN9__gnu_cxx12_Lock_policyE2EEC2IJSA_EEESB_DpOT_
FN:552,_ZNSt23_Sp_counted_ptr_inplaceIN7testing10OnceActionIFiiiiEEESaIS3_ELN9__gnu_cxx12_Lock_policyE2EED2Ev
FNDA:5,_ZNSt23_Sp_counted_ptr_inplaceIN7testing10OnceActionIFiiiiEEESaIS3_ELN9__gnu_cxx12_Lock_policyE2EED2Ev
FN:552,_ZNSt23_Sp_counted_ptr_inplaceIN7testing10OnceActionIFiiiiEEESaIS3_ELN9__gnu_cxx12_Lock_policyE2EED0Ev
FNDA:0,_ZNSt23_Sp_counted_ptr_inplaceIN7testing10OnceActionIFiiiiEEESaIS3_ELN9__gnu_cxx12_Lock_policyE2EED0Ev
FN:552,_ZNSt23_Sp_counted_ptr_inplaceIN7testing10OnceActionIFiiEE23IgnoreIncomingArgumentsINS0_8internal12ReturnActionIiE4ImplIiEEEESaISA_ELN9__gnu_cxx12_Lock_policyE2EED0Ev
FNDA:0,_ZNSt23_Sp_counted_ptr_inplaceIN7testing10OnceActionIFiiEE23IgnoreIncomingArgumentsINS0_8internal12ReturnActionIiE4ImplIiEEEESaISA_ELN9__gnu_cxx12_Lock_policyE2EED0Ev
FN:552,_ZNSt23_Sp_counted_ptr_inplaceIN7testing10OnceActionIFiiEEESaIS3_ELN9__gnu_cxx12_Lock_policyE2EED0Ev
FNDA:0,_ZNSt23_Sp_counted_ptr_inplaceIN7testing10OnceActionIFiiEEESaIS3_ELN9__gnu_cxx12_Lock_policyE2EED0Ev
FN:552,_ZNSt23_Sp_counted_ptr_inplaceIN7testing10OnceActionIFiiiiEE23IgnoreIncomingArgumentsINS0_8internal12ReturnActionIiE4ImplIiEEEESaISA_ELN9__gnu_cxx12_Lock_policyE2EED0Ev
FNDA:0,_ZNSt23_Sp_counted_ptr_inplaceIN7testing10OnceActionIFiiiiEE23IgnoreIncomingArgumentsINS0_8internal12ReturnActionIiE4ImplIiEEEESaISA_ELN9__gnu_cxx12_Lock_policyE2EED0Ev
FN:552,_ZNSt23_Sp_counted_ptr_inplaceIN7testing10OnceActionIFiiEE23IgnoreIncomingArgumentsINS0_8internal12ReturnActionIiE4ImplIiEEEESaISA_ELN9__gnu_cxx12_Lock_policyE2EED2Ev
FNDA:4,_ZNSt23_Sp_counted_ptr_inplaceIN7testing10OnceActionIFiiEE23IgnoreIncomingArgumentsINS0_8internal12ReturnActionIiE4ImplIiEEEESaISA_ELN9__gnu_cxx12_Lock_policyE2EED2Ev
FN:552,_ZNSt23_Sp_counted_ptr_inplaceIN7testing10OnceActionIFiiEEESaIS3_ELN9__gnu_cxx12_Lock_policyE2EED2Ev
FNDA:4,_ZNSt23_Sp_counted_ptr_inplaceIN7testing10OnceActionIFiiEEESaIS3_ELN9__gnu_cxx12_Lock_policyE2EED2Ev
FN:552,_ZNSt23_Sp_counted_ptr_inplaceIN7testing10OnceActionIFiiiiEE23IgnoreIncomingArgumentsINS0_8internal12ReturnActionIiE4ImplIiEEEESaISA_ELN9__gnu_cxx12_Lock_policyE2EED2Ev
FNDA:5,_ZNSt23_Sp_counted_ptr_inplaceIN7testing10OnceActionIFiiiiEE23IgnoreIncomingArgumentsINS0_8internal12ReturnActionIiE4ImplIiEEEESaISA_ELN9__gnu_cxx12_Lock_policyE2EED2Ev
FN:555,_ZNSt23_Sp_counted_ptr_inplaceIN7testing10OnceActionIFiiEE23IgnoreIncomingArgumentsINS0_8internal12ReturnActionIiE4ImplIiEEEESaISA_ELN9__gnu_cxx12_Lock_policyE2EE10_M_disposeEv
FNDA:4,_ZNSt23_Sp_counted_ptr_inplaceIN7testing10OnceActionIFiiEE23IgnoreIncomingArgumentsINS0_8internal12ReturnActionIiE4ImplIiEEEESaISA_ELN9__gnu_cxx12_Lock_policyE2EE10_M_disposeEv
FN:555,_ZNSt23_Sp_counted_ptr_inplaceIN7testing10OnceActionIFiiiiEEESaIS3_ELN9__gnu_cxx12_Lock_policyE2EE10_M_disposeEv
FNDA:5,_ZNSt23_Sp_counted_ptr_inplaceIN7testing10OnceActionIFiiiiEEESaIS3_ELN9__gnu_cxx12_Lock_policyE2EE10_M_disposeEv
FN:555,_ZNSt23_Sp_counted_ptr_inplaceIN7testing10OnceActionIFiiiiEE23IgnoreIncomingArgumentsINS0_8internal12ReturnActionIiE4ImplIiEEEESaISA_ELN9__gnu_cxx12_Lock_policyE2EE10_M_disposeEv
FNDA:5,_ZNSt23_Sp_counted_ptr_inplaceIN7testing10OnceActionIFiiiiEE23IgnoreIncomingArgumentsINS0_8internal12ReturnActionIiE4ImplIiEEEESaISA_ELN9__gnu_cxx12_Lock_policyE2EE10_M_disposeEv
FN:555,_ZNSt23_Sp_counted_ptr_inplaceIN7testing10OnceActionIFiiEEESaIS3_ELN9__gnu_cxx12_Lock_policyE2EE10_M_disposeEv
FNDA:4,_ZNSt23_Sp_counted_ptr_inplaceIN7testing10OnceActionIFiiEEESaIS3_ELN9__gnu_cxx12_Lock_policyE2EE10_M_disposeEv
FN:562,_ZNSt23_Sp_counted_ptr_inplaceIN7testing10OnceActionIFiiiiEE23IgnoreIncomingArgumentsINS0_8internal12ReturnActionIiE4ImplIiEEEESaISA_ELN9__gnu_cxx12_Lock_policyE2EE10_M_destroyEv
FNDA:5,_ZNSt23_Sp_counted_ptr_inplaceIN7testing10OnceActionIFiiiiEE23IgnoreIncomingArgumentsINS0_8internal12ReturnActionIiE4ImplIiEEEESaISA_ELN9__gnu_cxx12_Lock_policyE2EE10_M_destroyEv
FN:562,_ZNSt23_Sp_counted_ptr_inplaceIN7testing10OnceActionIFiiEE23IgnoreIncomingArgumentsINS0_8internal12ReturnActionIiE4ImplIiEEEESaISA_ELN9__gnu_cxx12_Lock_policyE2EE10_M_destroyEv
FNDA:4,_ZNSt23_Sp_counted_ptr_inplaceIN7testing10OnceActionIFiiEE23IgnoreIncomingArgumentsINS0_8internal12ReturnActionIiE4ImplIiEEEESaISA_ELN9__gnu_cxx12_Lock_policyE2EE10_M_destroyEv
FN:562,_ZNSt23_Sp_counted_ptr_inplaceIN7testing10OnceActionIFiiEEESaIS3_ELN9__gnu_cxx12_Lock_policyE2EE10_M_destroyEv
FNDA:4,_ZNSt23_Sp_counted_ptr_inplaceIN7testing10OnceActionIFiiEEESaIS3_ELN9__gnu_cxx12_Lock_policyE2EE10_M_destroyEv
FN:562,_ZNSt23_Sp_counted_ptr_inplaceIN7testing10OnceActionIFiiiiEEESaIS3_ELN9__gnu_cxx12_Lock_policyE2EE10_M_destroyEv
FNDA:5,_ZNSt23_Sp_counted_ptr_inplaceIN7testing10OnceActionIFiiiiEEESaIS3_ELN9__gnu_cxx12_Lock_policyE2EE10_M_destroyEv
FN:575,_ZNSt23_Sp_counted_ptr_inplaceIN7testing10OnceActionIFiiiiEEESaIS3_ELN9__gnu_cxx12_Lock_policyE2EE14_M_get_deleterERKSt9type_info
FNDA:0,_ZNSt23_Sp_counted_ptr_inplaceIN7testing10OnceActionIFiiiiEEESaIS3_ELN9__gnu_cxx12_Lock_policyE2EE14_M_get_deleterERKSt9type_info
FN:575,_ZNSt23_Sp_counted_ptr_inplaceIN7testing10OnceActionIFiiEE23IgnoreIncomingArgumentsINS0_8internal12ReturnActionIiE4ImplIiEEEESaISA_ELN9__gnu_cxx12_Lock_policyE2EE14_M_get_deleterERKSt9type_info
FNDA:0,_ZNSt23_Sp_counted_ptr_inplaceIN7testing10OnceActionIFiiEE23IgnoreIncomingArgumentsINS0_8internal12ReturnActionIiE4ImplIiEEEESaISA_ELN9__gnu_cxx12_Lock_policyE2EE14_M_get_deleterERKSt9type_info
FN:575,_ZNSt23_Sp_counted_ptr_inplaceIN7testing10OnceActionIFiiiiEE23IgnoreIncomingArgumentsINS0_8internal12ReturnActionIiE4ImplIiEEEESaISA_ELN9__gnu_cxx12_Lock_policyE2EE14_M_get_deleterERKSt9type_info
FNDA:0,_ZNSt23_Sp_counted_ptr_inplaceIN7testing10OnceActionIFiiiiEE23IgnoreIncomingArgumentsINS0_8internal12ReturnActionIiE4ImplIiEEEESaISA_ELN9__gnu_cxx12_Lock_policyE2EE14_M_get_deleterERKSt9type_info
FN:575,_ZNSt23_Sp_counted_ptr_inplaceIN7testing10OnceActionIFiiEEESaIS3_ELN9__gnu_cxx12_Lock_policyE2EE14_M_get_deleterERKSt9type_info
FNDA:0,_ZNSt23_Sp_counted_ptr_inplaceIN7testing10OnceActionIFiiEEESaIS3_ELN9__gnu_cxx12_Lock_policyE2EE14_M_get_deleterERKSt9type_info
FN:594,_ZNSt23_Sp_counted_ptr_inplaceIN7testing10OnceActionIFiiiiEEESaIS3_ELN9__gnu_cxx12_Lock_policyE2EE6_M_ptrEv
FNDA:15,_ZNSt23_Sp_counted_ptr_inplaceIN7testing10OnceActionIFiiiiEEESaIS3_ELN9__gnu_cxx12_Lock_policyE2EE6_M_ptrEv
FN:594,_ZNSt23_Sp_counted_ptr_inplaceIN7testing10OnceActionIFiiiiEE23IgnoreIncomingArgumentsINS0_8internal12ReturnActionIiE4ImplIiEEEESaISA_ELN9__gnu_cxx12_Lock_policyE2EE6_M_ptrEv
FNDA:15,_ZNSt23_Sp_counted_ptr_inplaceIN7testing10OnceActionIFiiiiEE23IgnoreIncomingArgumentsINS0_8internal12ReturnActionIiE4ImplIiEEEESaISA_ELN9__gnu_cxx12_Lock_policyE2EE6_M_ptrEv
FN:594,_ZNSt23_Sp_counted_ptr_inplaceIN7testing10OnceActionIFiiEEESaIS3_ELN9__gnu_cxx12_Lock_policyE2EE6_M_ptrEv
FNDA:12,_ZNSt23_Sp_counted_ptr_inplaceIN7testing10OnceActionIFiiEEESaIS3_ELN9__gnu_cxx12_Lock_policyE2EE6_M_ptrEv
FN:594,_ZNSt23_Sp_counted_ptr_inplaceIN7testing10OnceActionIFiiEE23IgnoreIncomingArgumentsINS0_8internal12ReturnActionIiE4ImplIiEEEESaISA_ELN9__gnu_cxx12_Lock_policyE2EE6_M_ptrEv
FNDA:12,_ZNSt23_Sp_counted_ptr_inplaceIN7testing10OnceActionIFiiEE23IgnoreIncomingArgumentsINS0_8internal12ReturnActionIiE4ImplIiEEEESaISA_ELN9__gnu_cxx12_Lock_policyE2EE6_M_ptrEv
FN:616,_ZNSt14__shared_countILN9__gnu_cxx12_Lock_policyE2EEC2Ev
FNDA:27,_ZNSt14__shared_countILN9__gnu_cxx12_Lock_policyE2EEC2Ev
FN:621,_ZNSt14__shared_countILN9__gnu_cxx12_Lock_policyE2EEC2IPN7testing8internal16TypedExpectationIFiiEEEEET_
FNDA:4,_ZNSt14__shared_countILN9__gnu_cxx12_Lock_policyE2EEC2IPN7testing8internal16TypedExpectationIFiiEEEEET_
FN:621,_ZNSt14__shared_countILN9__gnu_cxx12_Lock_policyE2EEC2IPN7testing8internal12ReturnActionIiE4ImplIiE5StateEEET_
FNDA:9,_ZNSt14__shared_countILN9__gnu_cxx12_Lock_policyE2EEC2IPN7testing8internal12ReturnActionIiE4ImplIiE5StateEEET_
FN:621,_ZNSt14__shared_countILN9__gnu_cxx12_Lock_policyE2EEC2IPN7testing8internal16TypedExpectationIFiiiiEEEEET_
FNDA:5,_ZNSt14__shared_countILN9__gnu_cxx12_Lock_policyE2EEC2IPN7testing8internal16TypedExpectationIFiiiiEEEEET_
FN:635,_ZNSt14__shared_countILN9__gnu_cxx12_Lock_policyE2EEC2IPN7testing8internal16TypedExpectationIFiiiiEEEEET_St17integral_constantIbLb0EE
FNDA:5,_ZNSt14__shared_countILN9__gnu_cxx12_Lock_policyE2EEC2IPN7testing8internal16TypedExpectationIFiiiiEEEEET_St17integral_constantIbLb0EE
FN:635,_ZNSt14__shared_countILN9__gnu_cxx12_Lock_policyE2EEC2IPN7testing8internal12ReturnActionIiE4ImplIiE5StateEEET_St17integral_constantIbLb0EE
FNDA:9,_ZNSt14__shared_countILN9__gnu_cxx12_Lock_policyE2EEC2IPN7testing8internal12ReturnActionIiE4ImplIiE5StateEEET_St17integral_constantIbLb0EE
FN:635,_ZNSt14__shared_countILN9__gnu_cxx12_Lock_policyE2EEC2IPN7testing8internal16TypedExpectationIFiiEEEEET_St17integral_constantIbLb0EE
FNDA:4,_ZNSt14__shared_countILN9__gnu_cxx12_Lock_policyE2EEC2IPN7testing8internal16TypedExpectationIFiiEEEEET_St17integral_constantIbLb0EE
FN:672,_ZNSt14__shared_countILN9__gnu_cxx12_Lock_policyE2EEC2IN7testing10OnceActionIFiiiiEE23IgnoreIncomingArgumentsINS4_8internal12ReturnActionIiE4ImplIiEEEESaISE_EJSE_EEERPT_St20_Sp_alloc_shared_tagIT0_EDpOT1_
FNDA:5,_ZNSt14__shared_countILN9__gnu_cxx12_Lock_policyE2EEC2IN7testing10OnceActionIFiiiiEE23IgnoreIncomingArgumentsINS4_8internal12ReturnActionIiE4ImplIiEEEESaISE_EJSE_EEERPT_St20_Sp_alloc_shared_tagIT0_EDpOT1_
FN:672,_ZNSt14__shared_countILN9__gnu_cxx12_Lock_policyE2EEC2IN7testing10OnceActionIFiiEE23IgnoreIncomingArgumentsINS4_8internal12ReturnActionIiE4ImplIiEEEESaISE_EJSE_EEERPT_St20_Sp_alloc_shared_tagIT0_EDpOT1_
FNDA:4,_ZNSt14__shared_countILN9__gnu_cxx12_Lock_policyE2EEC2IN7testing10OnceActionIFiiEE23IgnoreIncomingArgumentsINS4_8internal12ReturnActionIiE4ImplIiEEEESaISE_EJSE_EEERPT_St20_Sp_alloc_shared_tagIT0_EDpOT1_
FN:672,_ZNSt14__shared_countILN9__gnu_cxx12_Lock_policyE2EEC2IN7testing10OnceActionIFiiEEESaIS7_EJS7_EEERPT_St20_Sp_alloc_shared_tagIT0_EDpOT1_
FNDA:4,_ZNSt14__shared_countILN9__gnu_cxx12_Lock_policyE2EEC2IN7testing10OnceActionIFiiEEESaIS7_EJS7_EEERPT_St20_Sp_alloc_shared_tagIT0_EDpOT1_
FN:672,_ZNSt14__shared_countILN9__gnu_cxx12_Lock_policyE2EEC2IN7testing10OnceActionIFiiiiEEESaIS7_EJS7_EEERPT_St20_Sp_alloc_shared_tagIT0_EDpOT1_
FNDA:5,_ZNSt14__shared_countILN9__gnu_cxx12_Lock_policyE2EEC2IN7testing10OnceActionIFiiiiEEESaIS7_EJS7_EEERPT_St20_Sp_alloc_shared_tagIT0_EDpOT1_
FN:727,_ZNSt14__shared_countILN9__gnu_cxx12_Lock_policyE2EED2Ev
FNDA:117,_ZNSt14__shared_countILN9__gnu_cxx12_Lock_policyE2EED2Ev
FN:733,_ZNSt14__shared_countILN9__gnu_cxx12_Lock_policyE2EEC2ERKS2_
FNDA:36,_ZNSt14__shared_countILN9__gnu_cxx12_Lock_policyE2EEC2ERKS2_
FN:741,_ZNSt14__shared_countILN9__gnu_cxx12_Lock_policyE2EEaSERKS2_
FNDA:9,_ZNSt14__shared_countILN9__gnu_cxx12_Lock_policyE2EEaSERKS2_
FN:756,_ZNSt14__shared_countILN9__gnu_cxx12_Lock_policyE2EE7_M_swapERS2_
FNDA:27,_ZNSt14__shared_countILN9__gnu_cxx12_Lock_policyE2EE7_M_swapERS2_
FN:1005,_ZNKSt19__shared_ptr_accessIN7testing10OnceActionIFiiEEELN9__gnu_cxx12_Lock_policyE2ELb0ELb0EEdeEv
FNDA:4,_ZNKSt19__shared_ptr_accessIN7testing10OnceActionIFiiEEELN9__gnu_cxx12_Lock_policyE2ELb0ELb0EEdeEv
FN:1005,_ZNKSt19__shared_ptr_accessIN7testing10OnceActionIFiiEE23IgnoreIncomingArgumentsINS0_8internal12ReturnActionIiE4ImplIiEEEELN9__gnu_cxx12_Lock_policyE2ELb0ELb0EEdeEv
FNDA:4,_ZNKSt19__shared_ptr_accessIN7testing10OnceActionIFiiEE23IgnoreIncomingArgumentsINS0_8internal12ReturnActionIiE4ImplIiEEEELN9__gnu_cxx12_Lock_policyE2ELb0ELb0EEdeEv
FN:1005,_ZNKSt19__shared_ptr_accessIN7testing10OnceActionIFiiiiEEELN9__gnu_cxx12_Lock_policyE2ELb0ELb0EEdeEv
FNDA:5,_ZNKSt19__shared_ptr_accessIN7testing10OnceActionIFiiiiEEELN9__gnu_cxx12_Lock_policyE2ELb0ELb0EEdeEv
FN:1005,_ZNKSt19__shared_ptr_accessIN7testing10OnceActionIFiiiiEE23IgnoreIncomingArgumentsINS0_8internal12ReturnActionIiE4ImplIiEEEELN9__gnu_cxx12_Lock_policyE2ELb0ELb0EEdeEv
FNDA:5,_ZNKSt19__shared_ptr_accessIN7testing10OnceActionIFiiiiEE23IgnoreIncomingArgumentsINS0_8internal12ReturnActionIiE4ImplIiEEEELN9__gnu_cxx12_Lock_policyE2ELb0ELb0EEdeEv
FN:1012,_ZNKSt19__shared_ptr_accessIN7testing8internal15ExpectationBaseELN9__gnu_cxx12_Lock_policyE2ELb0ELb0EEptEv
FNDA:0,_ZNKSt19__shared_ptr_accessIN7testing8internal15ExpectationBaseELN9__gnu_cxx12_Lock_policyE2ELb0ELb0EEptEv
FN:1012,_ZNKSt19__shared_ptr_accessIN7testing8internal12ReturnActionIiE4ImplIiE5StateELN9__gnu_cxx12_Lock_policyE2ELb0ELb0EEptEv
FNDA:9,_ZNKSt19__shared_ptr_accessIN7testing8internal12ReturnActionIiE4ImplIiE5StateELN9__gnu_cxx12_Lock_policyE2ELb0ELb0EEptEv
FN:1012,_ZNKSt19__shared_ptr_accessIKN7testing20CardinalityInterfaceELN9__gnu_cxx12_Lock_policyE2ELb0ELb0EEptEv
FNDA:45,_ZNKSt19__shared_ptr_accessIKN7testing20CardinalityInterfaceELN9__gnu_cxx12_Lock_policyE2ELb0ELb0EEptEv
FN:1020,_ZNKSt19__shared_ptr_accessIKN7testing20CardinalityInterfaceELN9__gnu_cxx12_Lock_policyE2ELb0ELb0EE6_M_getEv
FNDA:45,_ZNKSt19__shared_ptr_accessIKN7testing20CardinalityInterfaceELN9__gnu_cxx12_Lock_policyE2ELb0ELb0EE6_M_getEv
FN:1020,_ZNKSt19__shared_ptr_accessIN7testing8internal15ExpectationBaseELN9__gnu_cxx12_Lock_policyE2ELb0ELb0EE6_M_getEv
FNDA:0,_ZNKSt19__shared_ptr_accessIN7testing8internal15ExpectationBaseELN9__gnu_cxx12_Lock_policyE2ELb0ELb0EE6_M_getEv
FN:1020,_ZNKSt19__shared_ptr_accessIN7testing10OnceActionIFiiiiEE23IgnoreIncomingArgumentsINS0_8internal12ReturnActionIiE4ImplIiEEEELN9__gnu_cxx12_Lock_policyE2ELb0ELb0EE6_M_getEv
FNDA:5,_ZNKSt19__shared_ptr_accessIN7testing10OnceActionIFiiiiEE23IgnoreIncomingArgumentsINS0_8internal12ReturnActionIiE4ImplIiEEEELN9__gnu_cxx12_Lock_policyE2ELb0ELb0EE6_M_getEv
FN:1020,_ZNKSt19__shared_ptr_accessIN7testing10OnceActionIFiiEE23IgnoreIncomingArgumentsINS0_8internal12ReturnActionIiE4ImplIiEEEELN9__gnu_cxx12_Lock_policyE2ELb0ELb0EE6_M_getEv
FNDA:4,_ZNKSt19__shared_ptr_accessIN7testing10OnceActionIFiiEE23IgnoreIncomingArgumentsINS0_8internal12ReturnActionIiE4ImplIiEEEELN9__gnu_cxx12_Lock_policyE2ELb0ELb0EE6_M_getEv
FN:1020,_ZNKSt19__shared_ptr_accessIN7testing10OnceActionIFiiiiEEELN9__gnu_cxx12_Lock_policyE2ELb0ELb0EE6_M_getEv
FNDA:5,_ZNKSt19__shared_ptr_accessIN7testing10OnceActionIFiiiiEEELN9__gnu_cxx12_Lock_policyE2ELb0ELb0EE6_M_getEv
FN:1020,_ZNKSt19__shared_ptr_accessIN7testing10OnceActionIFiiEEELN9__gnu_cxx12_Lock_policyE2ELb0ELb0EE6_M_getEv
FNDA:4,_ZNKSt19__shared_ptr_accessIN7testing10OnceActionIFiiEEELN9__gnu_cxx12_Lock_policyE2ELb0ELb0EE6_M_getEv
FN:1020,_ZNKSt19__shared_ptr_accessIN7testing8internal12ReturnActionIiE4ImplIiE5StateELN9__gnu_cxx12_Lock_policyE2ELb0ELb0EE6_M_getEv
FNDA:9,_ZNKSt19__shared_ptr_accessIN7testing8internal12ReturnActionIiE4ImplIiE5StateELN9__gnu_cxx12_Lock_policyE2ELb0ELb0EE6_M_getEv
FN:1080,_ZNSt12__shared_ptrIKN7testing20CardinalityInterfaceELN9__gnu_cxx12_Lock_policyE2EEaSERKS5_
FNDA:9,_ZNSt12__shared_ptrIKN7testing20CardinalityInterfaceELN9__gnu_cxx12_Lock_policyE2EEaSERKS5_
FN:1124,_ZNSt12__shared_ptrIN7testing8internal15ExpectationBaseELN9__gnu_cxx12_Lock_policyE2EEC2INS1_16TypedExpectationIFiiEEEvEEPT_
FNDA:4,_ZNSt12__shared_ptrIN7testing8internal15ExpectationBaseELN9__gnu_cxx12_Lock_policyE2EEC2INS1_16TypedExpectationIFiiEEEvEEPT_
FN:1124,_ZNSt12__shared_ptrIN7testing8internal12ReturnActionIiE4ImplIiE5StateELN9__gnu_cxx12_Lock_policyE2EEC2IS6_vEEPT_
FNDA:9,_ZNSt12__shared_ptrIN7testing8internal12ReturnActionIiE4ImplIiE5StateELN9__gnu_cxx12_Lock_policyE2EEC2IS6_vEEPT_
FN:1124,_ZNSt12__shared_ptrIN7testing8internal15ExpectationBaseELN9__gnu_cxx12_Lock_policyE2EEC2INS1_16TypedExpectationIFiiiiEEEvEEPT_
FNDA:5,_ZNSt12__shared_ptrIN7testing8internal15ExpectationBaseELN9__gnu_cxx12_Lock_policyE2EEC2INS1_16TypedExpectationIFiiiiEEEvEEPT_
FN:1167,_ZNSt12__shared_ptrIN7testing10OnceActionIFiiiiEEELN9__gnu_cxx12_Lock_policyE2EEC2ERKS6_
FNDA:5,_ZNSt12__shared_ptrIN7testing10OnceActionIFiiiiEEELN9__gnu_cxx12_Lock_policyE2EEC2ERKS6_
FN:1167,_ZNSt12__shared_ptrIN7testing8internal12ReturnActionIiE4ImplIiE5StateELN9__gnu_cxx12_Lock_policyE2EEC2ERKS9_
FNDA:18,_ZNSt12__shared_ptrIN7testing8internal12ReturnActionIiE4ImplIiE5StateELN9__gnu_cxx12_Lock_policyE2EEC2ERKS9_
FN:1167,_ZNSt12__shared_ptrIN7testing10OnceActionIFiiiiEE23IgnoreIncomingArgumentsINS0_8internal12ReturnActionIiE4ImplIiEEEELN9__gnu_cxx12_Lock_policyE2EEC2ERKSD_
FNDA:0,_ZNSt12__shared_ptrIN7testing10OnceActionIFiiiiEE23IgnoreIncomingArgumentsINS0_8internal12ReturnActionIiE4ImplIiEEEELN9__gnu_cxx12_Lock_policyE2EEC2ERKSD_
FN:1167,_ZNSt12__shared_ptrIN7testing10OnceActionIFiiEE23IgnoreIncomingArgumentsINS0_8internal12ReturnActionIiE4ImplIiEEEELN9__gnu_cxx12_Lock_policyE2EEC2ERKSD_
FNDA:0,_ZNSt12__shared_ptrIN7testing10OnceActionIFiiEE23IgnoreIncomingArgumentsINS0_8internal12ReturnActionIiE4ImplIiEEEELN9__gnu_cxx12_Lock_policyE2EEC2ERKSD_
FN:1167,_ZNSt12__shared_ptrIN7testing10OnceActionIFiiEEELN9__gnu_cxx12_Lock_policyE2EEC2ERKS6_
FNDA:4,_ZNSt12__shared_ptrIN7testing10OnceActionIFiiEEELN9__gnu_cxx12_Lock_policyE2EEC2ERKS6_
FN:1167,_ZNSt12__shared_ptrIN7testing8internal15ExpectationBaseELN9__gnu_cxx12_Lock_policyE2EEC2ERKS5_
FNDA:9,_ZNSt12__shared_ptrIN7testing8internal15ExpectationBaseELN9__gnu_cxx12_Lock_policyE2EEC2ERKS5_
FN:1169,_ZNSt12__shared_ptrIN7testing10OnceActionIFiiEEELN9__gnu_cxx12_Lock_policyE2EED2Ev
FNDA:16,_ZNSt12__shared_ptrIN7testing10OnceActionIFiiEEELN9__gnu_cxx12_Lock_policyE2EED2Ev
FN:1169,_ZNSt12__shared_ptrIN7testing10OnceActionIFiiiiEEELN9__gnu_cxx12_Lock_policyE2EED2Ev
FNDA:20,_ZNSt12__shared_ptrIN7testing10OnceActionIFiiiiEEELN9__gnu_cxx12_Lock_policyE2EED2Ev
FN:1169,_ZNSt12__shared_ptrIN7testing8internal12ReturnActionIiE4ImplIiE5StateELN9__gnu_cxx12_Lock_policyE2EED2Ev
FNDA:27,_ZNSt12__shared_ptrIN7testing8internal12ReturnActionIiE4ImplIiE5StateELN9__gnu_cxx12_Lock_policyE2EED2Ev
FN:1169,_ZNSt12__shared_ptrIN7testing8internal15ExpectationBaseELN9__gnu_cxx12_Lock_policyE2EED2Ev
FNDA:18,_ZNSt12__shared_ptrIN7testing8internal15ExpectationBaseELN9__gnu_cxx12_Lock_policyE2EED2Ev
FN:1169,_ZNSt12__shared_ptrIKN7testing20CardinalityInterfaceELN9__gnu_cxx12_Lock_policyE2EED2Ev
FNDA:18,_ZNSt12__shared_ptrIKN7testing20CardinalityInterfaceELN9__gnu_cxx12_Lock_policyE2EED2Ev
FN:1169,_ZNSt12__shared_ptrIN7testing10OnceActionIFiiEE23IgnoreIncomingArgumentsINS0_8internal12ReturnActionIiE4ImplIiEEEELN9__gnu_cxx12_Lock_policyE2EED2Ev
FNDA:8,_ZNSt12__shared_ptrIN7testing10OnceActionIFiiEE23IgnoreIncomingArgumentsINS0_8internal12ReturnActionIiE4ImplIiEEEELN9__gnu_cxx12_Lock_policyE2EED2Ev
FN:1169,_ZNSt12__shared_ptrIN7testing10OnceActionIFiiiiEE23IgnoreIncomingArgumentsINS0_8internal12ReturnActionIiE4ImplIiEEEELN9__gnu_cxx12_Lock_policyE2EED2Ev
FNDA:10,_ZNSt12__shared_ptrIN7testing10OnceActionIFiiiiEE23IgnoreIncomingArgumentsINS0_8internal12ReturnActionIiE4ImplIiEEEELN9__gnu_cxx12_Lock_policyE2EED2Ev
FN:1176,_ZNSt12__shared_ptrIN7testing8internal15ExpectationBaseELN9__gnu_cxx12_Lock_policyE2EEC2EOS5_
FNDA:0,_ZNSt12__shared_ptrIN7testing8internal15ExpectationBaseELN9__gnu_cxx12_Lock_policyE2EEC2EOS5_
FN:1176,_ZNSt12__shared_ptrIN7testing10OnceActionIFiiiiEEELN9__gnu_cxx12_Lock_policyE2EEC2EOS6_
FNDA:10,_ZNSt12__shared_ptrIN7testing10OnceActionIFiiiiEEELN9__gnu_cxx12_Lock_policyE2EEC2EOS6_
FN:1176,_ZNSt12__shared_ptrIN7testing10OnceActionIFiiEEELN9__gnu_cxx12_Lock_policyE2EEC2EOS6_
FNDA:8,_ZNSt12__shared_ptrIN7testing10OnceActionIFiiEEELN9__gnu_cxx12_Lock_policyE2EEC2EOS6_
FN:1176,_ZNSt12__shared_ptrIN7testing10OnceActionIFiiiiEE23IgnoreIncomingArgumentsINS0_8internal12ReturnActionIiE4ImplIiEEEELN9__gnu_cxx12_Lock_policyE2EEC2EOSD_
FNDA:5,_ZNSt12__shared_ptrIN7testing10OnceActionIFiiiiEE23IgnoreIncomingArgumentsINS0_8internal12ReturnActionIiE4ImplIiEEEELN9__gnu_cxx12_Lock_policyE2EEC2EOSD_
FN:1176,_ZNSt12__shared_ptrIN7testing10OnceActionIFiiEE23IgnoreIncomingArgumentsINS0_8internal12ReturnActionIiE4ImplIiEEEELN9__gnu_cxx12_Lock_policyE2EEC2EOSD_
FNDA:4,_ZNSt12__shared_ptrIN7testing10OnceActionIFiiEE23IgnoreIncomingArgumentsINS0_8internal12ReturnActionIiE4ImplIiEEEELN9__gnu_cxx12_Lock_policyE2EEC2EOSD_
FN:1309,_ZNKSt12__shared_ptrIKN7testing20CardinalityInterfaceELN9__gnu_cxx12_Lock_policyE2EE3getEv
FNDA:45,_ZNKSt12__shared_ptrIKN7testing20CardinalityInterfaceELN9__gnu_cxx12_Lock_policyE2EE3getEv
FN:1309,_ZNKSt12__shared_ptrIN7testing8internal12ReturnActionIiE4ImplIiE5StateELN9__gnu_cxx12_Lock_policyE2EE3getEv
FNDA:9,_ZNKSt12__shared_ptrIN7testing8internal12ReturnActionIiE4ImplIiE5StateELN9__gnu_cxx12_Lock_policyE2EE3getEv
FN:1309,_ZNKSt12__shared_ptrIN7testing10OnceActionIFiiEEELN9__gnu_cxx12_Lock_policyE2EE3getEv
FNDA:4,_ZNKSt12__shared_ptrIN7testing10OnceActionIFiiEEELN9__gnu_cxx12_Lock_policyE2EE3getEv
FN:1309,_ZNKSt12__shared_ptrIN7testing10OnceActionIFiiiiEEELN9__gnu_cxx12_Lock_policyE2EE3getEv
FNDA:5,_ZNKSt12__shared_ptrIN7testing10OnceActionIFiiiiEEELN9__gnu_cxx12_Lock_policyE2EE3getEv
FN:1309,_ZNKSt12__shared_ptrIN7testing10OnceActionIFiiEE23IgnoreIncomingArgumentsINS0_8internal12ReturnActionIiE4ImplIiEEEELN9__gnu_cxx12_Lock_policyE2EE3getEv
FNDA:4,_ZNKSt12__shared_ptrIN7testing10OnceActionIFiiEE23IgnoreIncomingArgumentsINS0_8internal12ReturnActionIiE4ImplIiEEEELN9__gnu_cxx12_Lock_policyE2EE3getEv
FN:1309,_ZNKSt12__shared_ptrIN7testing10OnceActionIFiiiiEE23IgnoreIncomingArgumentsINS0_8internal12ReturnActionIiE4ImplIiEEEELN9__gnu_cxx12_Lock_policyE2EE3getEv
FNDA:5,_ZNKSt12__shared_ptrIN7testing10OnceActionIFiiiiEE23IgnoreIncomingArgumentsINS0_8internal12ReturnActionIiE4ImplIiEEEELN9__gnu_cxx12_Lock_policyE2EE3getEv
FN:1309,_ZNKSt12__shared_ptrIN7testing8internal15ExpectationBaseELN9__gnu_cxx12_Lock_policyE2EE3getEv
FNDA:18,_ZNKSt12__shared_ptrIN7testing8internal15ExpectationBaseELN9__gnu_cxx12_Lock_policyE2EE3getEv
FN:1343,_ZNSt12__shared_ptrIN7testing10OnceActionIFiiiiEE23IgnoreIncomingArgumentsINS0_8internal12ReturnActionIiE4ImplIiEEEELN9__gnu_cxx12_Lock_policyE2EEC2ISaISA_EJSA_EEESt20_Sp_alloc_shared_tagIT_EDpOT0_
FNDA:5,_ZNSt12__shared_ptrIN7testing10OnceActionIFiiiiEE23IgnoreIncomingArgumentsINS0_8internal12ReturnActionIiE4ImplIiEEEELN9__gnu_cxx12_Lock_policyE2EEC2ISaISA_EJSA_EEESt20_Sp_alloc_shared_tagIT_EDpOT0_
FN:1343,_ZNSt12__shared_ptrIN7testing10OnceActionIFiiEE23IgnoreIncomingArgumentsINS0_8internal12ReturnActionIiE4ImplIiEEEELN9__gnu_cxx12_Lock_policyE2EEC2ISaISA_EJSA_EEESt20_Sp_alloc_shared_tagIT_EDpOT0_
FNDA:4,_ZNSt12__shared_ptrIN7testing10OnceActionIFiiEE23IgnoreIncomingArgumentsINS0_8internal12ReturnActionIiE4ImplIiEEEELN9__gnu_cxx12_Lock_policyE2EEC2ISaISA_EJSA_EEESt20_Sp_alloc_shared_tagIT_EDpOT0_
FN:1343,_ZNSt12__shared_ptrIN7testing10OnceActionIFiiEEELN9__gnu_cxx12_Lock_policyE2EEC2ISaIS3_EJS3_EEESt20_Sp_alloc_shared_tagIT_EDpOT0_
FNDA:4,_ZNSt12__shared_ptrIN7testing10OnceActionIFiiEEELN9__gnu_cxx12_Lock_policyE2EEC2ISaIS3_EJS3_EEESt20_Sp_alloc_shared_tagIT_EDpOT0_
FN:1343,_ZNSt12__shared_ptrIN7testing10OnceActionIFiiiiEEELN9__gnu_cxx12_Lock_policyE2EEC2ISaIS3_EJS3_EEESt20_Sp_alloc_shared_tagIT_EDpOT0_
FNDA:5,_ZNSt12__shared_ptrIN7testing10OnceActionIFiiiiEEELN9__gnu_cxx12_Lock_policyE2EEC2ISaIS3_EJS3_EEESt20_Sp_alloc_shared_tagIT_EDpOT0_
FN:1388,_ZNSt12__shared_ptrIN7testing10OnceActionIFiiEEELN9__gnu_cxx12_Lock_policyE2EE31_M_enable_shared_from_this_withIS3_S3_EENSt9enable_ifIXntsrNS6_15__has_esft_baseIT0_vEE5valueEvE4typeEPT_
FNDA:4,_ZNSt12__shared_ptrIN7testing10OnceActionIFiiEEELN9__gnu_cxx12_Lock_policyE2EE31_M_enable_shared_from_this_withIS3_S3_EENSt9enable_ifIXntsrNS6_15__has_esft_baseIT0_vEE5valueEvE4typeEPT_
FN:1388,_ZNSt12__shared_ptrIN7testing10OnceActionIFiiiiEEELN9__gnu_cxx12_Lock_policyE2EE31_M_enable_shared_from_this_withIS3_S3_EENSt9enable_ifIXntsrNS6_15__has_esft_baseIT0_vEE5valueEvE4typeEPT_
FNDA:5,_ZNSt12__shared_ptrIN7testing10OnceActionIFiiiiEEELN9__gnu_cxx12_Lock_policyE2EE31_M_enable_shared_from_this_withIS3_S3_EENSt9enable_ifIXntsrNS6_15__has_esft_baseIT0_vEE5valueEvE4typeEPT_
FN:1388,_ZNSt12__shared_ptrIN7testing10OnceActionIFiiiiEE23IgnoreIncomingArgumentsINS0_8internal12ReturnActionIiE4ImplIiEEEELN9__gnu_cxx12_Lock_policyE2EE31_M_enable_shared_from_this_withISA_SA_EENSt9enable_ifIXntsrNSD_15__has_esft_baseIT0_vEE5valueEvE4typeEPT_
FNDA:5,_ZNSt12__shared_ptrIN7testing10OnceActionIFiiiiEE23IgnoreIncomingArgumentsINS0_8internal12ReturnActionIiE4ImplIiEEEELN9__gnu_cxx12_Lock_policyE2EE31_M_enable_shared_from_this_withISA_SA_EENSt9enable_ifIXntsrNSD_15__has_esft_baseIT0_vEE5valueEvE4typeEPT_
FN:1388,_ZNSt12__shared_ptrIN7testing10OnceActionIFiiEE23IgnoreIncomingArgumentsINS0_8internal12ReturnActionIiE4ImplIiEEEELN9__gnu_cxx12_Lock_policyE2EE31_M_enable_shared_from_this_withISA_SA_EENSt9enable_ifIXntsrNSD_15__has_esft_baseIT0_vEE5valueEvE4typeEPT_
FNDA:4,_ZNSt12__shared_ptrIN7testing10OnceActionIFiiEE23IgnoreIncomingArgumentsINS0_8internal12ReturnActionIiE4ImplIiEEEELN9__gnu_cxx12_Lock_policyE2EE31_M_enable_shared_from_this_withISA_SA_EENSt9enable_ifIXntsrNSD_15__has_esft_baseIT0_vEE5valueEvE4typeEPT_
FN:1388,_ZNSt12__shared_ptrIN7testing8internal15ExpectationBaseELN9__gnu_cxx12_Lock_policyE2EE31_M_enable_shared_from_this_withINS1_16TypedExpectationIFiiEEES9_EENSt9enable_ifIXntsrNS5_15__has_esft_baseIT0_vEE5valueEvE4typeEPT_
FNDA:4,_ZNSt12__shared_ptrIN7testing8internal15ExpectationBaseELN9__gnu_cxx12_Lock_policyE2EE31_M_enable_shared_from_this_withINS1_16TypedExpectationIFiiEEES9_EENSt9enable_ifIXntsrNS5_15__has_esft_baseIT0_vEE5valueEvE4typeEPT_
FN:1388,_ZNSt12__shared_ptrIN7testing8internal12ReturnActionIiE4ImplIiE5StateELN9__gnu_cxx12_Lock_policyE2EE31_M_enable_shared_from_this_withIS6_S6_EENSt9enable_ifIXntsrNS9_15__has_esft_baseIT0_vEE5valueEvE4typeEPT_
FNDA:9,_ZNSt12__shared_ptrIN7testing8internal12ReturnActionIiE4ImplIiE5StateELN9__gnu_cxx12_Lock_policyE2EE31_M_enable_shared_from_this_withIS6_S6_EENSt9enable_ifIXntsrNS9_15__has_esft_baseIT0_vEE5valueEvE4typeEPT_
FN:1388,_ZNSt12__shared_ptrIN7testing8internal15ExpectationBaseELN9__gnu_cxx12_Lock_policyE2EE31_M_enable_shared_from_this_withINS1_16TypedExpectationIFiiiiEEES9_EENSt9enable_ifIXntsrNS5_15__has_esft_baseIT0_vEE5valueEvE4typeEPT_
FNDA:5,_ZNSt12__shared_ptrIN7testing8internal15ExpectationBaseELN9__gnu_cxx12_Lock_policyE2EE31_M_enable_shared_from_this_withINS1_16TypedExpectationIFiiiiEEES9_EENSt9enable_ifIXntsrNS5_15__has_esft_baseIT0_vEE5valueEvE4typeEPT_
DA:117,54
DA:118,54
DA:121,0
DA:122,0
DA:121,54
DA:122,54
DA:131,0
DA:132,0
DA:138,45
DA:139,45
DA:148,99
DA:152,99
DA:155,54
DA:167,54
DA:168,54
DA:171,54
DA:174,99
DA:372,4
DA:373,4
DA:372,9
DA:373,9
DA:372,5
DA:373,5
DA:376,5
DA:377,5
DA:376,9
DA:377,9
DA:376,4
DA:377,4
DA:380,5
DA:381,5
DA:380,9
DA:381,9
DA:380,4
DA:381,4
DA:384,0
DA:385,0
DA:384,0
DA:385,0
DA:384,0
DA:385,0
DA:414,4
DA:414,5
DA:414,4
DA:414,5
DA:418,10
DA:418,8
DA:418,10
DA:418,8
DA:508,0
DA:511,0
DA:531,4
DA:531,5
DA:531,4
DA:531,5
DA:533,10
DA:533,8
DA:533,10
DA:533,8
DA:543,4
DA:544,4
DA:548,4
DA:550,4
DA:543,5
DA:544,5
DA:548,5
DA:550,5
DA:543,4
DA:544,4
DA:548,4
DA:550,4
DA:543,5
DA:544,5
DA:548,5
DA:550,5
DA:552,0
DA:552,5
DA:552,0
DA:552,4
DA:552,0
DA:552,5
DA:552,0
DA:552,4
DA:555,5
DA:557,5
DA:558,5
DA:555,4
DA:557,4
DA:558,4
DA:555,5
DA:557,5
DA:558,5
DA:555,4
DA:557,4
DA:558,4
DA:562,5
DA:564,10
DA:565,10
DA:566,5
DA:567,5
DA:562,4
DA:564,8
DA:565,8
DA:566,4
DA:567,4
DA:562,5
DA:564,10
DA:565,10
DA:566,5
DA:567,5
DA:562,4
DA:564,8
DA:565,8
DA:566,4
DA:567,4
DA:575,0
DA:577,0
DA:582,0
DA:583,0
DA:585,0
DA:590,0
DA:591,0
DA:575,0
DA:577,0
DA:582,0
DA:583,0
DA:585,0
DA:590,0
DA:591,0
DA:575,0
DA:577,0
DA:582,0
DA:583,0
DA:585,0
DA:590,0
DA:591,0
DA:575,0
DA:577,0
DA:582,0
DA:583,0
DA:585,0
DA:590,0
DA:591,0
DA:594,12
DA:594,15
DA:594,12
DA:594,15
DA:616,27
DA:617,27
DA:621,4
DA:625,4
DA:627,0
DA:629,0
DA:630,0
DA:632,4
DA:621,9
DA:625,9
DA:627,0
DA:629,0
DA:630,0
DA:632,9
DA:621,5
DA:625,5
DA:627,0
DA:629,0
DA:630,0
DA:632,5
DA:635,4
DA:636,4
DA:637,4
DA:635,9
DA:636,9
DA:637,9
DA:635,5
DA:636,5
DA:637,5
DA:672,4
DA:676,8
DA:677,4
DA:678,4
DA:679,8
DA:680,4
DA:681,4
DA:682,4
DA:683,4
DA:684,4
DA:672,5
DA:676,10
DA:677,5
DA:678,5
DA:679,10
DA:680,5
DA:681,5
DA:682,5
DA:683,5
DA:684,5
DA:672,4
DA:676,8
DA:677,4
DA:678,4
DA:679,8
DA:680,4
DA:681,4
DA:682,4
DA:683,4
DA:684,4
DA:672,5
DA:676,10
DA:677,5
DA:678,5
DA:679,10
DA:680,5
DA:681,5
DA:682,5
DA:683,5
DA:684,5
DA:727,117
DA:729,117
DA:730,90
DA:731,117
DA:733,36
DA:734,36
DA:736,36
DA:737,36
DA:738,36
DA:741,9
DA:743,9
DA:744,9
DA:746,9
DA:747,9
DA:748,9
DA:749,9
DA:750,9
DA:752,9
DA:756,27
DA:758,27
DA:759,27
DA:760,27
DA:761,27
DA:1005,4
DA:1008,4
DA:1005,5
DA:1008,5
DA:1005,4
DA:1008,4
DA:1005,5
DA:1008,5
DA:1012,9
DA:1015,9
DA:1012,0
DA:1015,0
DA:1012,45
DA:1015,45
DA:1020,9
DA:1021,9
DA:1020,4
DA:1021,4
DA:1020,5
DA:1021,5
DA:1020,4
DA:1021,4
DA:1020,5
DA:1021,5
DA:1020,0
DA:1021,0
DA:1020,45
DA:1021,45
DA:1080,9
DA:1124,4
DA:1125,4
DA:1129,4
DA:1130,4
DA:1124,9
DA:1125,9
DA:1129,9
DA:1130,9
DA:1124,5
DA:1125,5
DA:1129,5
DA:1130,5
DA:1167,4
DA:1167,5
DA:1167,0
DA:1167,0
DA:1167,18
DA:1167,9
DA:1169,8
DA:1169,10
DA:1169,16
DA:1169,20
DA:1169,27
DA:1169,18
DA:1169,18
DA:1176,0
DA:1177,0
DA:1179,0
DA:1180,0
DA:1181,0
DA:1176,4
DA:1177,4
DA:1179,4
DA:1180,4
DA:1181,4
DA:1176,5
DA:1177,5
DA:1179,5
DA:1180,5
DA:1181,5
DA:1176,8
DA:1177,8
DA:1179,8
DA:1180,8
DA:1181,8
DA:1176,10
DA:1177,10
DA:1179,10
DA:1180,10
DA:1181,10
DA:1309,9
DA:1310,9
DA:1309,4
DA:1310,4
DA:1309,5
DA:1310,5
DA:1309,4
DA:1310,4
DA:1309,5
DA:1310,5
DA:1309,45
DA:1310,45
DA:1309,18
DA:1310,18
DA:1343,4
DA:1344,4
DA:1345,4
DA:1343,5
DA:1344,5
DA:1345,5
DA:1343,4
DA:1344,4
DA:1345,4
DA:1343,5
DA:1344,5
DA:1345,5
DA:1388,4
DA:1389,4
DA:1388,5
DA:1389,5
DA:1388,4
DA:1389,4
DA:1388,5
DA:1389,5
DA:1388,4
DA:1389,4
DA:1388,9
DA:1389,9
DA:1388,5
DA:1389,5
end_of_record
SF:/usr/include/c++/9/bits/allocated_ptr.h
FN:52,_ZNSt15__allocated_ptrISaISt23_Sp_counted_ptr_inplaceIN7testing10OnceActionIFiiiiEE23IgnoreIncomingArgumentsINS1_8internal12ReturnActionIiE4ImplIiEEEESaISB_ELN9__gnu_cxx12_Lock_policyE2EEEEC2ERSG_PSF_
FNDA:10,_ZNSt15__allocated_ptrISaISt23_Sp_counted_ptr_inplaceIN7testing10OnceActionIFiiiiEE23IgnoreIncomingArgumentsINS1_8internal12ReturnActionIiE4ImplIiEEEESaISB_ELN9__gnu_cxx12_Lock_policyE2EEEEC2ERSG_PSF_
FN:52,_ZNSt15__allocated_ptrISaISt23_Sp_counted_ptr_inplaceIN7testing10OnceActionIFiiiiEEESaIS4_ELN9__gnu_cxx12_Lock_policyE2EEEEC2ERS9_PS8_
FNDA:10,_ZNSt15__allocated_ptrISaISt23_Sp_counted_ptr_inplaceIN7testing10OnceActionIFiiiiEEESaIS4_ELN9__gnu_cxx12_Lock_policyE2EEEEC2ERS9_PS8_
FN:52,_ZNSt15__allocated_ptrISaISt23_Sp_counted_ptr_inplaceIN7testing10OnceActionIFiiEEESaIS4_ELN9__gnu_cxx12_Lock_policyE2EEEEC2ERS9_PS8_
FNDA:8,_ZNSt15__allocated_ptrISaISt23_Sp_counted_ptr_inplaceIN7testing10OnceActionIFiiEEESaIS4_ELN9__gnu_cxx12_Lock_policyE2EEEEC2ERS9_PS8_
FN:52,_ZNSt15__allocated_ptrISaISt23_Sp_counted_ptr_inplaceIN7testing10OnceActionIFiiEE23IgnoreIncomingArgumentsINS1_8internal12ReturnActionIiE4ImplIiEEEESaISB_ELN9__gnu_cxx12_Lock_policyE2EEEEC2ERSG_PSF_
FNDA:8,_ZNSt15__allocated_ptrISaISt23_Sp_counted_ptr_inplaceIN7testing10OnceActionIFiiEE23IgnoreIncomingArgumentsINS1_8internal12ReturnActionIiE4ImplIiEEEESaISB_ELN9__gnu_cxx12_Lock_policyE2EEEEC2ERSG_PSF_
FN:70,_ZNSt15__allocated_ptrISaISt23_Sp_counted_ptr_inplaceIN7testing10OnceActionIFiiEE23IgnoreIncomingArgumentsINS1_8internal12ReturnActionIiE4ImplIiEEEESaISB_ELN9__gnu_cxx12_Lock_policyE2EEEED2Ev
FNDA:8,_ZNSt15__allocated_ptrISaISt23_Sp_counted_ptr_inplaceIN7testing10OnceActionIFiiEE23IgnoreIncomingArgumentsINS1_8internal12ReturnActionIiE4ImplIiEEEESaISB_ELN9__gnu_cxx12_Lock_policyE2EEEED2Ev
FN:70,_ZNSt15__allocated_ptrISaISt23_Sp_counted_ptr_inplaceIN7testing10OnceActionIFiiiiEEESaIS4_ELN9__gnu_cxx12_Lock_policyE2EEEED2Ev
FNDA:10,_ZNSt15__allocated_ptrISaISt23_Sp_counted_ptr_inplaceIN7testing10OnceActionIFiiiiEEESaIS4_ELN9__gnu_cxx12_Lock_policyE2EEEED2Ev
FN:70,_ZNSt15__allocated_ptrISaISt23_Sp_counted_ptr_inplaceIN7testing10OnceActionIFiiEEESaIS4_ELN9__gnu_cxx12_Lock_policyE2EEEED2Ev
FNDA:8,_ZNSt15__allocated_ptrISaISt23_Sp_counted_ptr_inplaceIN7testing10OnceActionIFiiEEESaIS4_ELN9__gnu_cxx12_Lock_policyE2EEEED2Ev
FN:70,_ZNSt15__allocated_ptrISaISt23_Sp_counted_ptr_inplaceIN7testing10OnceActionIFiiiiEE23IgnoreIncomingArgumentsINS1_8internal12ReturnActionIiE4ImplIiEEEESaISB_ELN9__gnu_cxx12_Lock_policyE2EEEED2Ev
FNDA:10,_ZNSt15__allocated_ptrISaISt23_Sp_counted_ptr_inplaceIN7testing10OnceActionIFiiiiEE23IgnoreIncomingArgumentsINS1_8internal12ReturnActionIiE4ImplIiEEEESaISB_ELN9__gnu_cxx12_Lock_policyE2EEEED2Ev
FN:78,_ZNSt15__allocated_ptrISaISt23_Sp_counted_ptr_inplaceIN7testing10OnceActionIFiiEE23IgnoreIncomingArgumentsINS1_8internal12ReturnActionIiE4ImplIiEEEESaISB_ELN9__gnu_cxx12_Lock_policyE2EEEEaSEDn
FNDA:4,_ZNSt15__allocated_ptrISaISt23_Sp_counted_ptr_inplaceIN7testing10OnceActionIFiiEE23IgnoreIncomingArgumentsINS1_8internal12ReturnActionIiE4ImplIiEEEESaISB_ELN9__gnu_cxx12_Lock_policyE2EEEEaSEDn
FN:78,_ZNSt15__allocated_ptrISaISt23_Sp_counted_ptr_inplaceIN7testing10OnceActionIFiiiiEE23IgnoreIncomingArgumentsINS1_8internal12ReturnActionIiE4ImplIiEEEESaISB_ELN9__gnu_cxx12_Lock_policyE2EEEEaSEDn
FNDA:5,_ZNSt15__allocated_ptrISaISt23_Sp_counted_ptr_inplaceIN7testing10OnceActionIFiiiiEE23IgnoreIncomingArgumentsINS1_8internal12ReturnActionIiE4ImplIiEEEESaISB_ELN9__gnu_cxx12_Lock_policyE2EEEEaSEDn
FN:78,_ZNSt15__allocated_ptrISaISt23_Sp_counted_ptr_inplaceIN7testing10OnceActionIFiiEEESaIS4_ELN9__gnu_cxx12_Lock_policyE2EEEEaSEDn
FNDA:4,_ZNSt15__allocated_ptrISaISt23_Sp_counted_ptr_inplaceIN7testing10OnceActionIFiiEEESaIS4_ELN9__gnu_cxx12_Lock_policyE2EEEEaSEDn
FN:78,_ZNSt15__allocated_ptrISaISt23_Sp_counted_ptr_inplaceIN7testing10OnceActionIFiiiiEEESaIS4_ELN9__gnu_cxx12_Lock_policyE2EEEEaSEDn
FNDA:5,_ZNSt15__allocated_ptrISaISt23_Sp_counted_ptr_inplaceIN7testing10OnceActionIFiiiiEEESaIS4_ELN9__gnu_cxx12_Lock_policyE2EEEEaSEDn
FN:85,_ZNSt15__allocated_ptrISaISt23_Sp_counted_ptr_inplaceIN7testing10OnceActionIFiiiiEE23IgnoreIncomingArgumentsINS1_8internal12ReturnActionIiE4ImplIiEEEESaISB_ELN9__gnu_cxx12_Lock_policyE2EEEE3getEv
FNDA:5,_ZNSt15__allocated_ptrISaISt23_Sp_counted_ptr_inplaceIN7testing10OnceActionIFiiiiEE23IgnoreIncomingArgumentsINS1_8internal12ReturnActionIiE4ImplIiEEEESaISB_ELN9__gnu_cxx12_Lock_policyE2EEEE3getEv
FN:85,_ZNSt15__allocated_ptrISaISt23_Sp_counted_ptr_inplaceIN7testing10OnceActionIFiiEEESaIS4_ELN9__gnu_cxx12_Lock_policyE2EEEE3getEv
FNDA:4,_ZNSt15__allocated_ptrISaISt23_Sp_counted_ptr_inplaceIN7testing10OnceActionIFiiEEESaIS4_ELN9__gnu_cxx12_Lock_policyE2EEEE3getEv
FN:85,_ZNSt15__allocated_ptrISaISt23_Sp_counted_ptr_inplaceIN7testing10OnceActionIFiiiiEEESaIS4_ELN9__gnu_cxx12_Lock_policyE2EEEE3getEv
FNDA:5,_ZNSt15__allocated_ptrISaISt23_Sp_counted_ptr_inplaceIN7testing10OnceActionIFiiiiEEESaIS4_ELN9__gnu_cxx12_Lock_policyE2EEEE3getEv
FN:85,_ZNSt15__allocated_ptrISaISt23_Sp_counted_ptr_inplaceIN7testing10OnceActionIFiiEE23IgnoreIncomingArgumentsINS1_8internal12ReturnActionIiE4ImplIiEEEESaISB_ELN9__gnu_cxx12_Lock_policyE2EEEE3getEv
FNDA:4,_ZNSt15__allocated_ptrISaISt23_Sp_counted_ptr_inplaceIN7testing10OnceActionIFiiEE23IgnoreIncomingArgumentsINS1_8internal12ReturnActionIiE4ImplIiEEEESaISB_ELN9__gnu_cxx12_Lock_policyE2EEEE3getEv
FN:95,_ZSt18__allocate_guardedISaISt23_Sp_counted_ptr_inplaceIN7testing10OnceActionIFiiiiEE23IgnoreIncomingArgumentsINS1_8internal12ReturnActionIiE4ImplIiEEEESaISB_ELN9__gnu_cxx12_Lock_policyE2EEEESt15__allocated_ptrIT_ERSI_
FNDA:5,_ZSt18__allocate_guardedISaISt23_Sp_counted_ptr_inplaceIN7testing10OnceActionIFiiiiEE23IgnoreIncomingArgumentsINS1_8internal12ReturnActionIiE4ImplIiEEEESaISB_ELN9__gnu_cxx12_Lock_policyE2EEEESt15__allocated_ptrIT_ERSI_
FN:95,_ZSt18__allocate_guardedISaISt23_Sp_counted_ptr_inplaceIN7testing10OnceActionIFiiEE23IgnoreIncomingArgumentsINS1_8internal12ReturnActionIiE4ImplIiEEEESaISB_ELN9__gnu_cxx12_Lock_policyE2EEEESt15__allocated_ptrIT_ERSI_
FNDA:4,_ZSt18__allocate_guardedISaISt23_Sp_counted_ptr_inplaceIN7testing10OnceActionIFiiEE23IgnoreIncomingArgumentsINS1_8internal12ReturnActionIiE4ImplIiEEEESaISB_ELN9__gnu_cxx12_Lock_policyE2EEEESt15__allocated_ptrIT_ERSI_
FN:95,_ZSt18__allocate_guardedISaISt23_Sp_counted_ptr_inplaceIN7testing10OnceActionIFiiEEESaIS4_ELN9__gnu_cxx12_Lock_policyE2EEEESt15__allocated_ptrIT_ERSB_
FNDA:4,_ZSt18__allocate_guardedISaISt23_Sp_counted_ptr_inplaceIN7testing10OnceActionIFiiEEESaIS4_ELN9__gnu_cxx12_Lock_policyE2EEEESt15__allocated_ptrIT_ERSB_
FN:95,_ZSt18__allocate_guardedISaISt23_Sp_counted_ptr_inplaceIN7testing10OnceActionIFiiiiEEESaIS4_ELN9__gnu_cxx12_Lock_policyE2EEEESt15__allocated_ptrIT_ERSB_
FNDA:5,_ZSt18__allocate_guardedISaISt23_Sp_counted_ptr_inplaceIN7testing10OnceActionIFiiiiEEESaIS4_ELN9__gnu_cxx12_Lock_policyE2EEEESt15__allocated_ptrIT_ERSB_
DA:52,8
DA:53,8
DA:54,8
DA:52,10
DA:53,10
DA:54,10
DA:52,8
DA:53,8
DA:54,8
DA:52,10
DA:53,10
DA:54,10
DA:70,8
DA:72,8
DA:73,4
DA:74,8
DA:70,10
DA:72,10
DA:73,5
DA:74,10
DA:70,8
DA:72,8
DA:73,4
DA:74,8
DA:70,10
DA:72,10
DA:73,5
DA:74,10
DA:78,4
DA:80,4
DA:81,4
DA:78,5
DA:80,5
DA:81,5
DA:78,4
DA:80,4
DA:81,4
DA:78,5
DA:80,5
DA:81,5
DA:85,4
DA:85,5
DA:85,4
DA:85,5
DA:95,4
DA:97,4
DA:95,5
DA:97,5
DA:95,4
DA:97,4
DA:95,5
DA:97,5
end_of_record
SF:/usr/include/c++/9/bits/unique_ptr.h
FN:75,_ZNKSt14default_deleteINSt7__cxx1112basic_stringIcSt11char_traitsIcESaIcEEEEclEPS5_
FNDA:0,_ZNKSt14default_deleteINSt7__cxx1112basic_stringIcSt11char_traitsIcESaIcEEEEclEPS5_
FN:75,_ZNKSt14default_deleteINSt7__cxx1118basic_stringstreamIcSt11char_traitsIcESaIcEEEEclEPS5_
FNDA:339,_ZNKSt14default_deleteINSt7__cxx1118basic_stringstreamIcSt11char_traitsIcESaIcEEEEclEPS5_
FN:153,_ZNSt15__uniq_ptr_implINSt7__cxx1112basic_stringIcSt11char_traitsIcESaIcEEESt14default_deleteIS5_EE6_M_ptrEv
FNDA:5,_ZNSt15__uniq_ptr_implINSt7__cxx1112basic_stringIcSt11char_traitsIcESaIcEEESt14default_deleteIS5_EE6_M_ptrEv
FN:153,_ZNSt15__uniq_ptr_implINSt7__cxx1118basic_stringstreamIcSt11char_traitsIcESaIcEEESt14default_deleteIS5_EE6_M_ptrEv
FNDA:678,_ZNSt15__uniq_ptr_implINSt7__cxx1118basic_stringstreamIcSt11char_traitsIcESaIcEEESt14default_deleteIS5_EE6_M_ptrEv
FN:154,_ZNKSt15__uniq_ptr_implIN7testing8internal11ThreadLocalIPNS0_8SequenceEE18ValueHolderFactoryESt14default_deleteIS6_EE6_M_ptrEv
FNDA:5,_ZNKSt15__uniq_ptr_implIN7testing8internal11ThreadLocalIPNS0_8SequenceEE18ValueHolderFactoryESt14default_deleteIS6_EE6_M_ptrEv
FN:154,_ZNKSt15__uniq_ptr_implINSt7__cxx1112basic_stringIcSt11char_traitsIcESaIcEEESt14default_deleteIS5_EE6_M_ptrEv
FNDA:0,_ZNKSt15__uniq_ptr_implINSt7__cxx1112basic_stringIcSt11char_traitsIcESaIcEEESt14default_deleteIS5_EE6_M_ptrEv
FN:155,_ZNSt15__uniq_ptr_implINSt7__cxx1112basic_stringIcSt11char_traitsIcESaIcEEESt14default_deleteIS5_EE10_M_deleterEv
FNDA:0,_ZNSt15__uniq_ptr_implINSt7__cxx1112basic_stringIcSt11char_traitsIcESaIcEEESt14default_deleteIS5_EE10_M_deleterEv
FN:155,_ZNSt15__uniq_ptr_implINSt7__cxx1118basic_stringstreamIcSt11char_traitsIcESaIcEEESt14default_deleteIS5_EE10_M_deleterEv
FNDA:339,_ZNSt15__uniq_ptr_implINSt7__cxx1118basic_stringstreamIcSt11char_traitsIcESaIcEEESt14default_deleteIS5_EE10_M_deleterEv
FN:286,_ZNSt10unique_ptrINSt7__cxx1112basic_stringIcSt11char_traitsIcESaIcEEESt14default_deleteIS5_EED2Ev
FNDA:5,_ZNSt10unique_ptrINSt7__cxx1112basic_stringIcSt11char_traitsIcESaIcEEESt14default_deleteIS5_EED2Ev
FN:286,_ZNSt10unique_ptrINSt7__cxx1118basic_stringstreamIcSt11char_traitsIcESaIcEEESt14default_deleteIS5_EED2Ev
FNDA:339,_ZNSt10unique_ptrINSt7__cxx1118basic_stringstreamIcSt11char_traitsIcESaIcEEESt14default_deleteIS5_EED2Ev
FN:352,_ZNKSt10unique_ptrIN7testing8internal11ThreadLocalIPNS0_8SequenceEE18ValueHolderFactoryESt14default_deleteIS6_EEptEv
FNDA:5,_ZNKSt10unique_ptrIN7testing8internal11ThreadLocalIPNS0_8SequenceEE18ValueHolderFactoryESt14default_deleteIS6_EEptEv
FN:352,_ZNKSt10unique_ptrINSt7__cxx1112basic_stringIcSt11char_traitsIcESaIcEEESt14default_deleteIS5_EEptEv
FNDA:0,_ZNKSt10unique_ptrINSt7__cxx1112basic_stringIcSt11char_traitsIcESaIcEEESt14default_deleteIS5_EEptEv
FN:360,_ZNKSt10unique_ptrIN7testing8internal11ThreadLocalIPNS0_8SequenceEE18ValueHolderFactoryESt14default_deleteIS6_EE3getEv
FNDA:5,_ZNKSt10unique_ptrIN7testing8internal11ThreadLocalIPNS0_8SequenceEE18ValueHolderFactoryESt14default_deleteIS6_EE3getEv
FN:360,_ZNKSt10unique_ptrINSt7__cxx1112basic_stringIcSt11char_traitsIcESaIcEEESt14default_deleteIS5_EE3getEv
FNDA:0,_ZNKSt10unique_ptrINSt7__cxx1112basic_stringIcSt11char_traitsIcESaIcEEESt14default_deleteIS5_EE3getEv
FN:365,_ZNSt10unique_ptrINSt7__cxx1112basic_stringIcSt11char_traitsIcESaIcEEESt14default_deleteIS5_EE11get_deleterEv
FNDA:0,_ZNSt10unique_ptrINSt7__cxx1112basic_stringIcSt11char_traitsIcESaIcEEESt14default_deleteIS5_EE11get_deleterEv
FN:365,_ZNSt10unique_ptrINSt7__cxx1118basic_stringstreamIcSt11char_traitsIcESaIcEEESt14default_deleteIS5_EE11get_deleterEv
FNDA:339,_ZNSt10unique_ptrINSt7__cxx1118basic_stringstreamIcSt11char_traitsIcESaIcEEESt14default_deleteIS5_EE11get_deleterEv
DA:75,0
DA:81,0
DA:82,0
DA:75,339
DA:81,339
DA:82,339
DA:153,5
DA:153,678
DA:154,5
DA:154,0
DA:155,0
DA:155,339
DA:286,5
DA:290,5
DA:291,5
DA:292,0
DA:293,5
DA:294,5
DA:286,339
DA:290,339
DA:291,339
DA:292,339
DA:293,339
DA:294,339
DA:352,5
DA:355,5
DA:352,0
DA:355,0
DA:360,5
DA:361,5
DA:360,0
DA:361,0
DA:365,0
DA:366,0
DA:365,339
DA:366,339
end_of_record
SF:/mnt/c/Users/user/Desktop/TTECH/my_project/hello_test.cc
FN:9,_ZN20MockSocketOperations6socketEiii
FNDA:5,_ZN20MockSocketOperations6socketEiii
FN:9,_ZN20MockSocketOperations12gmock_socketERKN7testing7MatcherIiEES4_S4_
FNDA:5,_ZN20MockSocketOperations12gmock_socketERKN7testing7MatcherIiEES4_S4_
FN:10,_ZN20MockSocketOperations5closeEi
FNDA:5,_ZN20MockSocketOperations5closeEi
FN:10,_ZN20MockSocketOperations11gmock_closeERKN7testing7MatcherIiEE
FNDA:4,_ZN20MockSocketOperations11gmock_closeERKN7testing7MatcherIiEE
FN:17,socket
FNDA:5,socket
FN:21,close
FNDA:5,close
FN:29,_ZN12MultiplyTest5SetUpEv
FNDA:5,_ZN12MultiplyTest5SetUpEv
FN:33,_ZN12MultiplyTest8TearDownEv
FNDA:5,_ZN12MultiplyTest8TearDownEv
FN:39,_ZN34MultiplyTest_Multiply_Success_TestC2Ev
FNDA:1,_ZN34MultiplyTest_Multiply_Success_TestC2Ev
FN:39,_ZN34MultiplyTest_Multiply_Success_TestD0Ev
FNDA:1,_ZN34MultiplyTest_Multiply_Success_TestD0Ev
FN:39,_ZN34MultiplyTest_Multiply_Success_TestD2Ev
FNDA:1,_ZN34MultiplyTest_Multiply_Success_TestD2Ev
FN:39,_ZN34MultiplyTest_Multiply_Success_Test8TestBodyEv
FNDA:1,_ZN34MultiplyTest_Multiply_Success_Test8TestBodyEv
FN:52,_ZN33MultiplyTest_Multiply_ByZero_TestC2Ev
FNDA:1,_ZN33MultiplyTest_Multiply_ByZero_TestC2Ev
FN:52,_ZN33MultiplyTest_Multiply_ByZero_Test8TestBodyEv
FNDA:1,_ZN33MultiplyTest_Multiply_ByZero_Test8TestBodyEv
FN:52,_ZN33MultiplyTest_Multiply_ByZero_TestD2Ev
FNDA:1,_ZN33MultiplyTest_Multiply_ByZero_TestD2Ev
FN:52,_ZN33MultiplyTest_Multiply_ByZero_TestD0Ev
FNDA:1,_ZN33MultiplyTest_Multiply_ByZero_TestD0Ev
FN:65,_ZN42MultiplyTest_Multiply_NegativeNumbers_Test8TestBodyEv
FNDA:1,_ZN42MultiplyTest_Multiply_NegativeNumbers_Test8TestBodyEv
FN:65,_ZN42MultiplyTest_Multiply_NegativeNumbers_TestD2Ev
FNDA:1,_ZN42MultiplyTest_Multiply_NegativeNumbers_TestD2Ev
FN:65,_ZN42MultiplyTest_Multiply_NegativeNumbers_TestD0Ev
FNDA:1,_ZN42MultiplyTest_Multiply_NegativeNumbers_TestD0Ev
FN:65,_ZN42MultiplyTest_Multiply_NegativeNumbers_TestC2Ev
FNDA:1,_ZN42MultiplyTest_Multiply_NegativeNumbers_TestC2Ev
FN:78,_ZN46MultiplyTest_Multiply_PositiveAndNegative_Test8TestBodyEv
FNDA:1,_ZN46MultiplyTest_Multiply_PositiveAndNegative_Test8TestBodyEv
FN:78,_ZN46MultiplyTest_Multiply_PositiveAndNegative_TestD2Ev
FNDA:1,_ZN46MultiplyTest_Multiply_PositiveAndNegative_TestD2Ev
FN:78,_ZN46MultiplyTest_Multiply_PositiveAndNegative_TestD0Ev
FNDA:1,_ZN46MultiplyTest_Multiply_PositiveAndNegative_TestD0Ev
FN:78,_ZN46MultiplyTest_Multiply_PositiveAndNegative_TestC2Ev
FNDA:1,_ZN46MultiplyTest_Multiply_PositiveAndNegative_TestC2Ev
FN:91,_ZN40MultiplyTest_Multiply_SocketFailure_TestD2Ev
FNDA:1,_ZN40MultiplyTest_Multiply_SocketFailure_TestD2Ev
FN:91,_ZN40MultiplyTest_Multiply_SocketFailure_Test8TestBodyEv
FNDA:1,_ZN40MultiplyTest_Multiply_SocketFailure_Test8TestBodyEv
FN:91,_ZN40MultiplyTest_Multiply_SocketFailure_TestD0Ev
FNDA:1,_ZN40MultiplyTest_Multiply_SocketFailure_TestD0Ev
FN:91,_ZN40MultiplyTest_Multiply_SocketFailure_TestC2Ev
FNDA:1,_ZN40MultiplyTest_Multiply_SocketFailure_TestC2Ev
FN:103,main
FNDA:6,main
DA:9,5
DA:9,5
DA:10,4
DA:10,5
DA:17,5
DA:18,5
DA:21,5
DA:22,5
DA:29,5
DA:30,5
DA:31,5
DA:33,5
DA:34,5
DA:35,5
DA:39,1
DA:39,1
DA:39,1
DA:39,1
DA:41,1
DA:42,1
DA:45,1
DA:48,1
DA:49,1
DA:52,1
DA:52,1
DA:52,1
DA:52,1
DA:54,1
DA:55,1
DA:58,1
DA:61,1
DA:62,1
DA:65,1
DA:65,1
DA:65,1
DA:65,1
DA:67,1
DA:68,1
DA:71,1
DA:74,1
DA:75,1
DA:78,1
DA:78,1
DA:78,1
DA:78,1
DA:80,1
DA:81,1
DA:84,1
DA:87,1
DA:88,1
DA:91,1
DA:91,1
DA:91,1
DA:91,1
DA:93,1
DA:96,1
DA:99,1
DA:101,1
DA:103,6
DA:104,6
DA:105,6
end_of_record
SF:/usr/include/c++/9/bits/shared_ptr.h
FN:103,_ZNSt10shared_ptrIKN7testing20CardinalityInterfaceEEaSERKS3_
FNDA:9,_ZNSt10shared_ptrIKN7testing20CardinalityInterfaceEEaSERKS3_
FN:129,_ZNSt10shared_ptrIN7testing10OnceActionIFiiEEEEC2ERKS4_
FNDA:4,_ZNSt10shared_ptrIN7testing10OnceActionIFiiEEEEC2ERKS4_
FN:129,_ZNSt10shared_ptrIN7testing8internal15ExpectationBaseEEC2ERKS3_
FNDA:9,_ZNSt10shared_ptrIN7testing8internal15ExpectationBaseEEC2ERKS3_
FN:129,_ZNSt10shared_ptrIN7testing8internal12ReturnActionIiE4ImplIiE5StateEEC2ERKS7_
FNDA:18,_ZNSt10shared_ptrIN7testing8internal12ReturnActionIiE4ImplIiE5StateEEC2ERKS7_
FN:129,_ZNSt10shared_ptrIN7testing10OnceActionIFiiiiEE23IgnoreIncomingArgumentsINS0_8internal12ReturnActionIiE4ImplIiEEEEEC2ERKSB_
FNDA:0,_ZNSt10shared_ptrIN7testing10OnceActionIFiiiiEE23IgnoreIncomingArgumentsINS0_8internal12ReturnActionIiE4ImplIiEEEEEC2ERKSB_
FN:129,_ZNSt10shared_ptrIN7testing10OnceActionIFiiEE23IgnoreIncomingArgumentsINS0_8internal12ReturnActionIiE4ImplIiEEEEEC2ERKSB_
FNDA:0,_ZNSt10shared_ptrIN7testing10OnceActionIFiiEE23IgnoreIncomingArgumentsINS0_8internal12ReturnActionIiE4ImplIiEEEEEC2ERKSB_
FN:129,_ZNSt10shared_ptrIN7testing10OnceActionIFiiiiEEEEC2ERKS4_
FNDA:5,_ZNSt10shared_ptrIN7testing10OnceActionIFiiiiEEEEC2ERKS4_
FN:139,_ZNSt10shared_ptrIN7testing8internal15ExpectationBaseEEC2INS1_16TypedExpectationIFiiiiEEEvEEPT_
FNDA:5,_ZNSt10shared_ptrIN7testing8internal15ExpectationBaseEEC2INS1_16TypedExpectationIFiiiiEEEvEEPT_
FN:139,_ZNSt10shared_ptrIN7testing8internal12ReturnActionIiE4ImplIiE5StateEEC2IS6_vEEPT_
FNDA:9,_ZNSt10shared_ptrIN7testing8internal12ReturnActionIiE4ImplIiE5StateEEC2IS6_vEEPT_
FN:139,_ZNSt10shared_ptrIN7testing8internal15ExpectationBaseEEC2INS1_16TypedExpectationIFiiEEEvEEPT_
FNDA:4,_ZNSt10shared_ptrIN7testing8internal15ExpectationBaseEEC2INS1_16TypedExpectationIFiiEEEvEEPT_
FN:254,_ZNSt10shared_ptrIN7testing8internal15ExpectationBaseEEC2EOS3_
FNDA:0,_ZNSt10shared_ptrIN7testing8internal15ExpectationBaseEEC2EOS3_
FN:254,_ZNSt10shared_ptrIN7testing10OnceActionIFiiiiEEEEC2EOS4_
FNDA:10,_ZNSt10shared_ptrIN7testing10OnceActionIFiiiiEEEEC2EOS4_
FN:254,_ZNSt10shared_ptrIN7testing10OnceActionIFiiEEEEC2EOS4_
FNDA:8,_ZNSt10shared_ptrIN7testing10OnceActionIFiiEEEEC2EOS4_
FN:254,_ZNSt10shared_ptrIN7testing10OnceActionIFiiiiEE23IgnoreIncomingArgumentsINS0_8internal12ReturnActionIiE4ImplIiEEEEEC2EOSB_
FNDA:5,_ZNSt10shared_ptrIN7testing10OnceActionIFiiiiEE23IgnoreIncomingArgumentsINS0_8internal12ReturnActionIiE4ImplIiEEEEEC2EOSB_
FN:254,_ZNSt10shared_ptrIN7testing10OnceActionIFiiEE23IgnoreIncomingArgumentsINS0_8internal12ReturnActionIiE4ImplIiEEEEEC2EOSB_
FNDA:4,_ZNSt10shared_ptrIN7testing10OnceActionIFiiEE23IgnoreIncomingArgumentsINS0_8internal12ReturnActionIiE4ImplIiEEEEEC2EOSB_
FN:358,_ZNSt10shared_ptrIN7testing10OnceActionIFiiiiEEEEC2ISaIS3_EJS3_EEESt20_Sp_alloc_shared_tagIT_EDpOT0_
FNDA:5,_ZNSt10shared_ptrIN7testing10OnceActionIFiiiiEEEEC2ISaIS3_EJS3_EEESt20_Sp_alloc_shared_tagIT_EDpOT0_
FN:358,_ZNSt10shared_ptrIN7testing10OnceActionIFiiEEEEC2ISaIS3_EJS3_EEESt20_Sp_alloc_shared_tagIT_EDpOT0_
FNDA:4,_ZNSt10shared_ptrIN7testing10OnceActionIFiiEEEEC2ISaIS3_EJS3_EEESt20_Sp_alloc_shared_tagIT_EDpOT0_
FN:358,_ZNSt10shared_ptrIN7testing10OnceActionIFiiiiEE23IgnoreIncomingArgumentsINS0_8internal12ReturnActionIiE4ImplIiEEEEEC2ISaISA_EJSA_EEESt20_Sp_alloc_shared_tagIT_EDpOT0_
FNDA:5,_ZNSt10shared_ptrIN7testing10OnceActionIFiiiiEE23IgnoreIncomingArgumentsINS0_8internal12ReturnActionIiE4ImplIiEEEEEC2ISaISA_EJSA_EEESt20_Sp_alloc_shared_tagIT_EDpOT0_
FN:358,_ZNSt10shared_ptrIN7testing10OnceActionIFiiEE23IgnoreIncomingArgumentsINS0_8internal12ReturnActionIiE4ImplIiEEEEEC2ISaISA_EJSA_EEESt20_Sp_alloc_shared_tagIT_EDpOT0_
FNDA:4,_ZNSt10shared_ptrIN7testing10OnceActionIFiiEE23IgnoreIncomingArgumentsINS0_8internal12ReturnActionIiE4ImplIiEEEEEC2ISaISA_EJSA_EEESt20_Sp_alloc_shared_tagIT_EDpOT0_
FN:699,_ZSt15allocate_sharedIN7testing10OnceActionIFiiEEESaIS3_EJS3_EESt10shared_ptrIT_ERKT0_DpOT1_
FNDA:4,_ZSt15allocate_sharedIN7testing10OnceActionIFiiEEESaIS3_EJS3_EESt10shared_ptrIT_ERKT0_DpOT1_
FN:699,_ZSt15allocate_sharedIN7testing10OnceActionIFiiiiEEESaIS3_EJS3_EESt10shared_ptrIT_ERKT0_DpOT1_
FNDA:5,_ZSt15allocate_sharedIN7testing10OnceActionIFiiiiEEESaIS3_EJS3_EESt10shared_ptrIT_ERKT0_DpOT1_
FN:699,_ZSt15allocate_sharedIN7testing10OnceActionIFiiiiEE23IgnoreIncomingArgumentsINS0_8internal12ReturnActionIiE4ImplIiEEEESaISA_EJSA_EESt10shared_ptrIT_ERKT0_DpOT1_
FNDA:5,_ZSt15allocate_sharedIN7testing10OnceActionIFiiiiEE23IgnoreIncomingArgumentsINS0_8internal12ReturnActionIiE4ImplIiEEEESaISA_EJSA_EESt10shared_ptrIT_ERKT0_DpOT1_
FN:699,_ZSt15allocate_sharedIN7testing10OnceActionIFiiEE23IgnoreIncomingArgumentsINS0_8internal12ReturnActionIiE4ImplIiEEEESaISA_EJSA_EESt10shared_ptrIT_ERKT0_DpOT1_
FNDA:4,_ZSt15allocate_sharedIN7testing10OnceActionIFiiEE23IgnoreIncomingArgumentsINS0_8internal12ReturnActionIiE4ImplIiEEEESaISA_EJSA_EESt10shared_ptrIT_ERKT0_DpOT1_
FN:714,_ZSt11make_sharedIN7testing10OnceActionIFiiiiEE23IgnoreIncomingArgumentsINS0_8internal12ReturnActionIiE4ImplIiEEEEJSA_EESt10shared_ptrIT_EDpOT0_
FNDA:5,_ZSt11make_sharedIN7testing10OnceActionIFiiiiEE23IgnoreIncomingArgumentsINS0_8internal12ReturnActionIiE4ImplIiEEEEJSA_EESt10shared_ptrIT_EDpOT0_
FN:714,_ZSt11make_sharedIN7testing10OnceActionIFiiEE23IgnoreIncomingArgumentsINS0_8internal12ReturnActionIiE4ImplIiEEEEJSA_EESt10shared_ptrIT_EDpOT0_
FNDA:4,_ZSt11make_sharedIN7testing10OnceActionIFiiEE23IgnoreIncomingArgumentsINS0_8internal12ReturnActionIiE4ImplIiEEEEJSA_EESt10shared_ptrIT_EDpOT0_
FN:714,_ZSt11make_sharedIN7testing10OnceActionIFiiEEEJS3_EESt10shared_ptrIT_EDpOT0_
FNDA:4,_ZSt11make_sharedIN7testing10OnceActionIFiiEEEJS3_EESt10shared_ptrIT_EDpOT0_
FN:714,_ZSt11make_sharedIN7testing10OnceActionIFiiiiEEEJS3_EESt10shared_ptrIT_EDpOT0_
FNDA:5,_ZSt11make_sharedIN7testing10OnceActionIFiiiiEEEJS3_EESt10shared_ptrIT_EDpOT0_
DA:103,9
DA:129,4
DA:129,5
DA:129,0
DA:129,0
DA:129,18
DA:129,9
DA:139,4
DA:139,9
DA:139,5
DA:254,0
DA:255,0
DA:254,4
DA:255,4
DA:254,5
DA:255,5
DA:254,8
DA:255,8
DA:254,10
DA:255,10
DA:358,4
DA:359,4
DA:360,4
DA:358,5
DA:359,5
DA:360,5
DA:358,4
DA:359,4
DA:360,4
DA:358,5
DA:359,5
DA:360,5
DA:699,4
DA:702,4
DA:699,5
DA:702,5
DA:699,4
DA:702,4
DA:699,5
DA:702,5
DA:714,4
DA:718,4
DA:714,5
DA:718,5
DA:714,4
DA:718,4
DA:714,5
DA:718,5
end_of_record
SF:/usr/include/c++/9/bits/ptr_traits.h
FN:156,_ZSt12__to_addressISt23_Sp_counted_ptr_inplaceIN7testing10OnceActionIFiiEE23IgnoreIncomingArgumentsINS1_8internal12ReturnActionIiE4ImplIiEEEESaISB_ELN9__gnu_cxx12_Lock_policyE2EEEPT_SH_
FNDA:4,_ZSt12__to_addressISt23_Sp_counted_ptr_inplaceIN7testing10OnceActionIFiiEE23IgnoreIncomingArgumentsINS1_8internal12ReturnActionIiE4ImplIiEEEESaISB_ELN9__gnu_cxx12_Lock_policyE2EEEPT_SH_
FN:156,_ZSt12__to_addressISt23_Sp_counted_ptr_inplaceIN7testing10OnceActionIFiiiiEE23IgnoreIncomingArgumentsINS1_8internal12ReturnActionIiE4ImplIiEEEESaISB_ELN9__gnu_cxx12_Lock_policyE2EEEPT_SH_
FNDA:5,_ZSt12__to_addressISt23_Sp_counted_ptr_inplaceIN7testing10OnceActionIFiiiiEE23IgnoreIncomingArgumentsINS1_8internal12ReturnActionIiE4ImplIiEEEESaISB_ELN9__gnu_cxx12_Lock_policyE2EEEPT_SH_
FN:156,_ZSt12__to_addressISt23_Sp_counted_ptr_inplaceIN7testing10OnceActionIFiiEEESaIS4_ELN9__gnu_cxx12_Lock_policyE2EEEPT_SA_
FNDA:4,_ZSt12__to_addressISt23_Sp_counted_ptr_inplaceIN7testing10OnceActionIFiiEEESaIS4_ELN9__gnu_cxx12_Lock_policyE2EEEPT_SA_
FN:156,_ZSt12__to_addressISt23_Sp_counted_ptr_inplaceIN7testing10OnceActionIFiiiiEEESaIS4_ELN9__gnu_cxx12_Lock_policyE2EEEPT_SA_
FNDA:5,_ZSt12__to_addressISt23_Sp_counted_ptr_inplaceIN7testing10OnceActionIFiiiiEEESaIS4_ELN9__gnu_cxx12_Lock_policyE2EEEPT_SA_
DA:156,4
DA:159,4
DA:156,5
DA:159,5
DA:156,4
DA:159,4
DA:156,5
DA:159,5
end_of_record
SF:/usr/include/c++/9/ext/type_traits.h
FN:152,_ZN9__gnu_cxx17__is_null_pointerIcEEbPT_
FNDA:0,_ZN9__gnu_cxx17__is_null_pointerIcEEbPT_
FN:152,_ZN9__gnu_cxx17__is_null_pointerIKcEEbPT_
FNDA:0,_ZN9__gnu_cxx17__is_null_pointerIKcEEbPT_
DA:152,0
DA:153,0
DA:152,0
DA:153,0
end_of_record
SF:/usr/include/c++/9/bits/stl_iterator_base_types.h
FN:205,_ZSt19__iterator_categoryIPcENSt15iterator_traitsIT_E17iterator_categoryERKS2_
FNDA:0,_ZSt19__iterator_categoryIPcENSt15iterator_traitsIT_E17iterator_categoryERKS2_
FN:205,_ZSt19__iterator_categoryIPKcENSt15iterator_traitsIT_E17iterator_categoryERKS3_
FNDA:0,_ZSt19__iterator_categoryIPKcENSt15iterator_traitsIT_E17iterator_categoryERKS3_
DA:205,0
DA:206,0
DA:205,0
DA:206,0
end_of_record
SF:/mnt/c/Users/user/Desktop/TTECH/my_project/build/_deps/googletest-src/googlemock/include/gmock/gmock-actions.h
FN:255,_ZN7testing8internal19BuiltInDefaultValueIiE6ExistsEv
FNDA:1,_ZN7testing8internal19BuiltInDefaultValueIiE6ExistsEv
FN:255,_ZN7testing8internal19BuiltInDefaultValueIiE3GetEv
FNDA:1,_ZN7testing8internal19BuiltInDefaultValueIiE3GetEv
FN:458,_ZN7testing10OnceActionIFiiiiEEC2INS2_23IgnoreIncomingArgumentsINS_8internal12ReturnActionIiE4ImplIiEEEELi0EEEOT_
FNDA:5,_ZN7testing10OnceActionIFiiiiEEC2INS2_23IgnoreIncomingArgumentsINS_8internal12ReturnActionIiE4ImplIiEEEELi0EEEOT_
FN:458,_ZN7testing10OnceActionIFiiEEC2INS2_23IgnoreIncomingArgumentsINS_8internal12ReturnActionIiE4ImplIiEEEELi0EEEOT_
FNDA:4,_ZN7testing10OnceActionIFiiEEC2INS2_23IgnoreIncomingArgumentsINS_8internal12ReturnActionIiE4ImplIiEEEELi0EEEOT_
FN:477,_ZN7testing10OnceActionIFiiiiEEC2INS_8internal12ReturnActionIiE4ImplIiEELi0EEEOT_
FNDA:5,_ZN7testing10OnceActionIFiiiiEEC2INS_8internal12ReturnActionIiE4ImplIiEELi0EEEOT_
FN:477,_ZN7testing10OnceActionIFiiEEC2INS_8internal12ReturnActionIiE4ImplIiEELi0EEEOT_
FNDA:4,_ZN7testing10OnceActionIFiiEEC2INS_8internal12ReturnActionIiE4ImplIiEELi0EEEOT_
FN:487,_ZN7testing10OnceActionIFiiiiEEC2EOS2_
FNDA:5,_ZN7testing10OnceActionIFiiiiEEC2EOS2_
FN:487,_ZN7testing10OnceActionIFiiEEC2EOS2_
FNDA:4,_ZN7testing10OnceActionIFiiEEC2EOS2_
FN:491,_ZNO7testing10OnceActionIFiiiiEE4CallEiii
FNDA:5,_ZNO7testing10OnceActionIFiiiiEE4CallEiii
FN:491,_ZNO7testing10OnceActionIFiiEE4CallEi
FNDA:4,_ZNO7testing10OnceActionIFiiEE4CallEi
FN:512,_ZN7testing10OnceActionIFiiEE18StdFunctionAdaptorINS2_23IgnoreIncomingArgumentsINS_8internal12ReturnActionIiE4ImplIiEEEEEC2ISA_EENSB_11CallableTagEOT_
FNDA:4,_ZN7testing10OnceActionIFiiEE18StdFunctionAdaptorINS2_23IgnoreIncomingArgumentsINS_8internal12ReturnActionIiE4ImplIiEEEEEC2ISA_EENSB_11CallableTagEOT_
FN:512,_ZN7testing10OnceActionIFiiiiEE18StdFunctionAdaptorINS2_23IgnoreIncomingArgumentsINS_8internal12ReturnActionIiE4ImplIiEEEEEC2ISA_EENSB_11CallableTagEOT_
FNDA:5,_ZN7testing10OnceActionIFiiiiEE18StdFunctionAdaptorINS2_23IgnoreIncomingArgumentsINS_8internal12ReturnActionIiE4ImplIiEEEEEC2ISA_EENSB_11CallableTagEOT_
FN:534,_ZNK7testing10OnceActionIFiiEE18StdFunctionAdaptorINS2_23IgnoreIncomingArgumentsINS_8internal12ReturnActionIiE4ImplIiEEEEEclIJiEEEDTclcl7declvalISA_EEspcl7declvalIT_EEEEDpOSD_
FNDA:4,_ZNK7testing10OnceActionIFiiEE18StdFunctionAdaptorINS2_23IgnoreIncomingArgumentsINS_8internal12ReturnActionIiE4ImplIiEEEEEclIJiEEEDTclcl7declvalISA_EEspcl7declvalIT_EEEEDpOSD_
FN:534,_ZNK7testing10OnceActionIFiiiiEE18StdFunctionAdaptorINS2_23IgnoreIncomingArgumentsINS_8internal12ReturnActionIiE4ImplIiEEEEEclIJiiiEEEDTclcl7declvalISA_EEspcl7declvalIT_EEEEDpOSD_
FNDA:5,_ZNK7testing10OnceActionIFiiiiEE18StdFunctionAdaptorINS2_23IgnoreIncomingArgumentsINS_8internal12ReturnActionIiE4ImplIiEEEEEclIJiiiEEEDTclcl7declvalISA_EEspcl7declvalIT_EEEEDpOSD_
FN:549,_ZN7testing10OnceActionIFiiEE23IgnoreIncomingArgumentsINS_8internal12ReturnActionIiE4ImplIiEEEclEOi
FNDA:4,_ZN7testing10OnceActionIFiiEE23IgnoreIncomingArgumentsINS_8internal12ReturnActionIiE4ImplIiEEEclEOi
FN:549,_ZN7testing10OnceActionIFiiiiEE23IgnoreIncomingArgumentsINS_8internal12ReturnActionIiE4ImplIiEEEclEOiSA_SA_
FNDA:5,_ZN7testing10OnceActionIFiiiiEE23IgnoreIncomingArgumentsINS_8internal12ReturnActionIiE4ImplIiEEEclEOiSA_SA_
FN:598,_ZN7testing12DefaultValueIiE5IsSetEv
FNDA:1,_ZN7testing12DefaultValueIiE5IsSetEv
FN:602,_ZN7testing12DefaultValueIiE6ExistsEv
FNDA:1,_ZN7testing12DefaultValueIiE6ExistsEv
FN:609,_ZN7testing12DefaultValueIiE3GetEv
FNDA:1,_ZN7testing12DefaultValueIiE3GetEv
FN:755,_ZN7testing6ActionIFiiiiEEC2Ev
FNDA:5,_ZN7testing6ActionIFiiiiEEC2Ev
FN:755,_ZN7testing6ActionIFiiEEC2Ev
FNDA:4,_ZN7testing6ActionIFiiEEC2Ev
FN:765,_ZN7testing6ActionIFiiEEC2INS_8internal16TypedExpectationIS1_E13ActionAdaptorEvEEOT_
FNDA:4,_ZN7testing6ActionIFiiEEC2INS_8internal16TypedExpectationIS1_E13ActionAdaptorEvEEOT_
FN:765,_ZN7testing6ActionIFiiiiEEC2INS_8internal16TypedExpectationIS1_E13ActionAdaptorEvEEOT_
FNDA:5,_ZN7testing6ActionIFiiiiEEC2INS_8internal16TypedExpectationIS1_E13ActionAdaptorEvEEOT_
FN:781,_ZNK7testing6ActionIFiiiiEE11IsDoDefaultEv
FNDA:10,_ZNK7testing6ActionIFiiiiEE11IsDoDefaultEv
FN:781,_ZNK7testing6ActionIFiiEE11IsDoDefaultEv
FNDA:8,_ZNK7testing6ActionIFiiEE11IsDoDefaultEv
FN:789,_ZNK7testing6ActionIFiiiiEE7PerformESt5tupleIJiiiEE
FNDA:5,_ZNK7testing6ActionIFiiiiEE7PerformESt5tupleIJiiiEE
FN:789,_ZNK7testing6ActionIFiiEE7PerformESt5tupleIJiEE
FNDA:4,_ZNK7testing6ActionIFiiEE7PerformESt5tupleIJiEE
FN:819,_ZN7testing6ActionIFiiiiEE4InitINS_8internal16TypedExpectationIS1_E13ActionAdaptorEEEvOT_St17integral_constantIbLb1EE
FNDA:5,_ZN7testing6ActionIFiiiiEE4InitINS_8internal16TypedExpectationIS1_E13ActionAdaptorEEEvOT_St17integral_constantIbLb1EE
FN:819,_ZN7testing6ActionIFiiEE4InitINS_8internal16TypedExpectationIS1_E13ActionAdaptorEEEvOT_St17integral_constantIbLb1EE
FNDA:4,_ZN7testing6ActionIFiiEE4InitINS_8internal16TypedExpectationIS1_E13ActionAdaptorEEEvOT_St17integral_constantIbLb1EE
FN:926,_ZN7testing8internal12ReturnActionIiEC2Ei
FNDA:9,_ZN7testing8internal12ReturnActionIiEC2Ei
FN:935,_ZNO7testing8internal12ReturnActionIiEcvNS_10OnceActionIFT_DpT0_EEEIiJiEvEEv
FNDA:4,_ZNO7testing8internal12ReturnActionIiEcvNS_10OnceActionIFT_DpT0_EEEIiJiEvEEv
FN:935,_ZNO7testing8internal12ReturnActionIiEcvNS_10OnceActionIFT_DpT0_EEEIiJiiiEvEEv
FNDA:5,_ZNO7testing8internal12ReturnActionIiEcvNS_10OnceActionIFT_DpT0_EEEIiJiiiEvEEv
FN:957,_ZN7testing8internal12ReturnActionIiE4ImplIiEC2EOi
FNDA:9,_ZN7testing8internal12ReturnActionIiE4ImplIiEC2EOi
FN:964,_ZNO7testing8internal12ReturnActionIiE4ImplIiEclEv
FNDA:9,_ZNO7testing8internal12ReturnActionIiE4ImplIiEclEv
FN:994,_ZN7testing8internal12ReturnActionIiE4ImplIiE5StateC2EOi
FNDA:9,_ZN7testing8internal12ReturnActionIiE4ImplIiE5StateC2EOi
FN:1257,_ZNK7testing8internal15DoDefaultActioncvNS_6ActionIT_EEIFiiEEEv
FNDA:4,_ZNK7testing8internal15DoDefaultActioncvNS_6ActionIT_EEIFiiEEEv
FN:1257,_ZNK7testing8internal15DoDefaultActioncvNS_6ActionIT_EEIFiiiiEEEv
FNDA:5,_ZNK7testing8internal15DoDefaultActioncvNS_6ActionIT_EEIFiiiiEEEv
FN:1848,_ZN7testing6ReturnIiEENS_8internal12ReturnActionIT_EES3_
FNDA:9,_ZN7testing6ReturnIiEENS_8internal12ReturnActionIT_EES3_
FN:1909,_ZN7testing9DoDefaultEv
FNDA:9,_ZN7testing9DoDefaultEv
DA:255,1
DA:255,1
DA:458,4
DA:460,4
DA:458,5
DA:460,5
DA:477,4
DA:481,4
DA:477,5
DA:481,5
DA:487,4
DA:487,5
DA:491,4
DA:492,4
DA:491,5
DA:492,5
DA:512,4
DA:513,4
DA:512,5
DA:513,5
DA:534,4
DA:536,4
DA:534,5
DA:536,5
DA:549,4
DA:550,4
DA:549,5
DA:550,5
DA:598,1
DA:602,1
DA:603,1
DA:609,1
DA:610,1
DA:611,1
DA:755,4
DA:755,5
DA:765,4
DA:766,4
DA:767,4
DA:765,5
DA:766,5
DA:767,5
DA:781,8
DA:781,10
DA:789,4
DA:790,4
DA:791,0
DA:793,4
DA:789,5
DA:790,5
DA:791,0
DA:793,5
DA:819,4
DA:820,4
DA:821,4
DA:819,5
DA:820,5
DA:821,5
DA:926,9
DA:935,4
DA:936,4
DA:935,5
DA:936,5
DA:957,9
DA:958,9
DA:964,9
DA:994,9
DA:995,9
DA:1002,9
DA:1257,4
DA:1258,4
DA:1257,5
DA:1258,5
DA:1848,9
DA:1849,9
DA:1909,9
DA:1910,9
end_of_record
SF:/mnt/c/Users/user/Desktop/TTECH/my_project/build/_deps/googletest-src/googletest/include/gtest/gtest-assertion-result.h
FN:174,_ZNK7testing15AssertionResultcvbEv
FNDA:5,_ZNK7testing15AssertionResultcvbEv
FN:183,_ZNK7testing15AssertionResult7messageEv
FNDA:0,_ZNK7testing15AssertionResult7messageEv
FN:187,_ZNK7testing15AssertionResult15failure_messageEv
FNDA:0,_ZNK7testing15AssertionResult15failure_messageEv
DA:174,5
DA:183,0
DA:184,0
DA:187,0
end_of_record
SF:/mnt/c/Users/user/Desktop/TTECH/my_project/build/_deps/googletest-src/googlemock/include/gmock/gmock-spec-builders.h
FN:242,_ZNK7testing8internal21UntypedOnCallSpecBase4fileEv
FNDA:0,_ZNK7testing8internal21UntypedOnCallSpecBase4fileEv
FN:243,_ZNK7testing8internal21UntypedOnCallSpecBase4lineEv
FNDA:0,_ZNK7testing8internal21UntypedOnCallSpecBase4lineEv
FN:256,_ZNK7testing8internal21UntypedOnCallSpecBase18AssertSpecPropertyEbRKNSt7__cxx1112basic_stringIcSt11char_traitsIcESaIcEEE
FNDA:0,_ZNK7testing8internal21UntypedOnCallSpecBase18AssertSpecPropertyEbRKNSt7__cxx1112basic_stringIcSt11char_traitsIcESaIcEEE
FN:319,_ZNK7testing8internal10OnCallSpecIFiiiiEE7MatchesERKSt5tupleIJiiiEE
FNDA:0,_ZNK7testing8internal10OnCallSpecIFiiiiEE7MatchesERKSt5tupleIJiiiEE
FN:319,_ZNK7testing8internal10OnCallSpecIFiiEE7MatchesERKSt5tupleIJiEE
FNDA:0,_ZNK7testing8internal10OnCallSpecIFiiEE7MatchesERKSt5tupleIJiEE
FN:324,_ZNK7testing8internal10OnCallSpecIFiiiiEE9GetActionEv
FNDA:0,_ZNK7testing8internal10OnCallSpecIFiiiiEE9GetActionEv
FN:324,_ZNK7testing8internal10OnCallSpecIFiiEE9GetActionEv
FNDA:0,_ZNK7testing8internal10OnCallSpecIFiiEE9GetActionEv
FN:535,_ZNK7testing11Expectation16expectation_baseEv
FNDA:0,_ZNK7testing11Expectation16expectation_baseEv
FN:565,_ZN7testing14ExpectationSetC2Ev
FNDA:9,_ZN7testing14ExpectationSetC2Ev
FN:601,_ZNK7testing14ExpectationSet5beginEv
FNDA:18,_ZNK7testing14ExpectationSet5beginEv
FN:602,_ZNK7testing14ExpectationSet3endEv
FNDA:18,_ZNK7testing14ExpectationSet3endEv
FN:689,_ZNK7testing8internal15ExpectationBase4fileEv
FNDA:0,_ZNK7testing8internal15ExpectationBase4fileEv
FN:690,_ZNK7testing8internal15ExpectationBase4lineEv
FNDA:0,_ZNK7testing8internal15ExpectationBase4lineEv
FN:691,_ZNK7testing8internal15ExpectationBase11source_textEv
FNDA:9,_ZNK7testing8internal15ExpectationBase11source_textEv
FN:693,_ZNK7testing8internal15ExpectationBase11cardinalityEv
FNDA:36,_ZNK7testing8internal15ExpectationBase11cardinalityEv
FN:696,_ZNK7testing8internal15ExpectationBase18DescribeLocationToEPSo
FNDA:0,_ZNK7testing8internal15ExpectationBase18DescribeLocationToEPSo
FN:738,_ZNK7testing8internal15ExpectationBase18ExpectSpecPropertyEbRKNSt7__cxx1112basic_stringIcSt11char_traitsIcESaIcEEE
FNDA:9,_ZNK7testing8internal15ExpectationBase18ExpectSpecPropertyEbRKNSt7__cxx1112basic_stringIcSt11char_traitsIcESaIcEEE
FN:749,_ZNK7testing8internal15ExpectationBase21cardinality_specifiedEv
FNDA:9,_ZNK7testing8internal15ExpectationBase21cardinality_specifiedEv
FN:752,_ZN7testing8internal15ExpectationBase15set_cardinalityERKNS_11CardinalityE
FNDA:9,_ZN7testing8internal15ExpectationBase15set_cardinalityERKNS_11CardinalityE
FN:764,_ZNK7testing8internal15ExpectationBase10is_retiredEv
FNDA:18,_ZNK7testing8internal15ExpectationBase10is_retiredEv
FN:770,_ZN7testing8internal15ExpectationBase6RetireEv
FNDA:0,_ZN7testing8internal15ExpectationBase6RetireEv
FN:782,_ZNK7testing8internal15ExpectationBase11IsSaturatedEv
FNDA:18,_ZNK7testing8internal15ExpectationBase11IsSaturatedEv
FN:803,_ZNK7testing8internal15ExpectationBase10call_countEv
FNDA:9,_ZNK7testing8internal15ExpectationBase10call_countEv
FN:809,_ZN7testing8internal15ExpectationBase18IncrementCallCountEv
FNDA:9,_ZN7testing8internal15ExpectationBase18IncrementCallCountEv
FN:872,_ZN7testing8internal16TypedExpectationIFiiiiEEC2EPNS0_14FunctionMockerIS2_EEPKciRKNSt7__cxx1112basic_stringIcSt11char_traitsIcESaIcEEERKSt5tupleIJNS_7MatcherIiEESJ_SJ_EE
FNDA:5,_ZN7testing8internal16TypedExpectationIFiiiiEEC2EPNS0_14FunctionMockerIS2_EEPKciRKNSt7__cxx1112basic_stringIcSt11char_traitsIcESaIcEEERKSt5tupleIJNS_7MatcherIiEESJ_SJ_EE
FN:872,_ZN7testing8internal16TypedExpectationIFiiEEC2EPNS0_14FunctionMockerIS2_EEPKciRKNSt7__cxx1112basic_stringIcSt11char_traitsIcESaIcEEERKSt5tupleIJNS_7MatcherIiEEEE
FNDA:4,_ZN7testing8internal16TypedExpectationIFiiEEC2EPNS0_14FunctionMockerIS2_EEPKciRKNSt7__cxx1112basic_stringIcSt11char_traitsIcESaIcEEERKSt5tupleIJNS_7MatcherIiEEEE
FN:884,_ZN7testing8internal16TypedExpectationIFiiiiEED0Ev
FNDA:5,_ZN7testing8internal16TypedExpectationIFiiiiEED0Ev
FN:884,_ZN7testing8internal16TypedExpectationIFiiEED0Ev
FNDA:4,_ZN7testing8internal16TypedExpectationIFiiEED0Ev
FN:884,_ZN7testing8internal16TypedExpectationIFiiEED2Ev
FNDA:4,_ZN7testing8internal16TypedExpectationIFiiEED2Ev
FN:884,_ZN7testing8internal16TypedExpectationIFiiiiEED2Ev
FNDA:5,_ZN7testing8internal16TypedExpectationIFiiiiEED2Ev
FN:981,_ZN7testing8internal16TypedExpectationIFiiiiEE8WillOnceENS_10OnceActionIS2_EE
FNDA:5,_ZN7testing8internal16TypedExpectationIFiiiiEE8WillOnceENS_10OnceActionIS2_EE
FN:981,_ZN7testing8internal16TypedExpectationIFiiEE8WillOnceENS_10OnceActionIS2_EE
FNDA:4,_ZN7testing8internal16TypedExpectationIFiiEE8WillOnceENS_10OnceActionIS2_EE
FN:996,_ZN7testing8internal16TypedExpectationIFiiiiEE8WillOnceIJEvEERS3_NS_6ActionIS2_EE
FNDA:5,_ZN7testing8internal16TypedExpectationIFiiiiEE8WillOnceIJEvEERS3_NS_6ActionIS2_EE
FN:996,_ZN7testing8internal16TypedExpectationIFiiEE8WillOnceIJEvEERS3_NS_6ActionIS2_EE
FNDA:4,_ZN7testing8internal16TypedExpectationIFiiEE8WillOnceIJEvEERS3_NS_6ActionIS2_EE
FN:1059,_ZNK7testing8internal16TypedExpectationIFiiEE15repeated_actionEv
FNDA:0,_ZNK7testing8internal16TypedExpectationIFiiEE15repeated_actionEv
FN:1059,_ZNK7testing8internal16TypedExpectationIFiiiiEE15repeated_actionEv
FNDA:0,_ZNK7testing8internal16TypedExpectationIFiiiiEE15repeated_actionEv
FN:1063,_ZN7testing8internal16TypedExpectationIFiiiiEE27MaybeDescribeExtraMatcherToEPSo
FNDA:0,_ZN7testing8internal16TypedExpectationIFiiiiEE27MaybeDescribeExtraMatcherToEPSo
FN:1063,_ZN7testing8internal16TypedExpectationIFiiEE27MaybeDescribeExtraMatcherToEPSo
FNDA:0,_ZN7testing8internal16TypedExpectationIFiiEE27MaybeDescribeExtraMatcherToEPSo
FN:1080,_ZNK7testing8internal16TypedExpectationIFiiEE13ActionAdaptorclEOi
FNDA:4,_ZNK7testing8internal16TypedExpectationIFiiEE13ActionAdaptorclEOi
FN:1080,_ZNK7testing8internal16TypedExpectationIFiiiiEE13ActionAdaptorclEOiS5_S5_
FNDA:5,_ZNK7testing8internal16TypedExpectationIFiiiiEE13ActionAdaptorclEOiS5_S5_
FN:1087,_ZN7testing8internal16TypedExpectationIFiiEE9GetHandleEv
FNDA:0,_ZN7testing8internal16TypedExpectationIFiiEE9GetHandleEv
FN:1087,_ZN7testing8internal16TypedExpectationIFiiiiEE9GetHandleEv
FNDA:0,_ZN7testing8internal16TypedExpectationIFiiiiEE9GetHandleEv
FN:1094,_ZNK7testing8internal16TypedExpectationIFiiEE7MatchesERKSt5tupleIJiEE
FNDA:4,_ZNK7testing8internal16TypedExpectationIFiiEE7MatchesERKSt5tupleIJiEE
FN:1094,_ZNK7testing8internal16TypedExpectationIFiiiiEE7MatchesERKSt5tupleIJiiiEE
FNDA:5,_ZNK7testing8internal16TypedExpectationIFiiiiEE7MatchesERKSt5tupleIJiiiEE
FN:1102,_ZNK7testing8internal16TypedExpectationIFiiEE21ShouldHandleArgumentsERKSt5tupleIJiEE
FNDA:4,_ZNK7testing8internal16TypedExpectationIFiiEE21ShouldHandleArgumentsERKSt5tupleIJiEE
FN:1102,_ZNK7testing8internal16TypedExpectationIFiiiiEE21ShouldHandleArgumentsERKSt5tupleIJiiiEE
FNDA:5,_ZNK7testing8internal16TypedExpectationIFiiiiEE21ShouldHandleArgumentsERKSt5tupleIJiiiEE
FN:1116,_ZNK7testing8internal16TypedExpectationIFiiEE20ExplainMatchResultToERKSt5tupleIJiEEPSo
FNDA:0,_ZNK7testing8internal16TypedExpectationIFiiEE20ExplainMatchResultToERKSt5tupleIJiEEPSo
FN:1116,_ZNK7testing8internal16TypedExpectationIFiiiiEE20ExplainMatchResultToERKSt5tupleIJiiiEEPSo
FNDA:0,_ZNK7testing8internal16TypedExpectationIFiiiiEE20ExplainMatchResultToERKSt5tupleIJiiiEEPSo
FN:1159,_ZNK7testing8internal16TypedExpectationIFiiEE16GetCurrentActionEPKNS0_14FunctionMockerIS2_EERKSt5tupleIJiEE
FNDA:4,_ZNK7testing8internal16TypedExpectationIFiiEE16GetCurrentActionEPKNS0_14FunctionMockerIS2_EERKSt5tupleIJiEE
FN:1159,_ZNK7testing8internal16TypedExpectationIFiiiiEE16GetCurrentActionEPKNS0_14FunctionMockerIS2_EERKSt5tupleIJiiiEE
FNDA:5,_ZNK7testing8internal16TypedExpectationIFiiiiEE16GetCurrentActionEPKNS0_14FunctionMockerIS2_EERKSt5tupleIJiiiEE
FN:1196,_ZN7testing8internal16TypedExpectationIFiiEE21GetActionForArgumentsEPKNS0_14FunctionMockerIS2_EERKSt5tupleIJiEEPSoSC_
FNDA:4,_ZN7testing8internal16TypedExpectationIFiiEE21GetActionForArgumentsEPKNS0_14FunctionMockerIS2_EERKSt5tupleIJiEEPSoSC_
FN:1196,_ZN7testing8internal16TypedExpectationIFiiiiEE21GetActionForArgumentsEPKNS0_14FunctionMockerIS2_EERKSt5tupleIJiiiEEPSoSC_
FNDA:5,_ZN7testing8internal16TypedExpectationIFiiiiEE21GetActionForArgumentsEPKNS0_14FunctionMockerIS2_EERKSt5tupleIJiiiEEPSoSC_
FN:1259,_ZN7testing8internal8MockSpecIFiiEEC2EPNS0_14FunctionMockerIS2_EERKSt5tupleIJNS_7MatcherIiEEEE
FNDA:4,_ZN7testing8internal8MockSpecIFiiEEC2EPNS0_14FunctionMockerIS2_EERKSt5tupleIJNS_7MatcherIiEEEE
FN:1259,_ZN7testing8internal8MockSpecIFiiiiEEC2EPNS0_14FunctionMockerIS2_EERKSt5tupleIJNS_7MatcherIiEES9_S9_EE
FNDA:5,_ZN7testing8internal8MockSpecIFiiiiEEC2EPNS0_14FunctionMockerIS2_EERKSt5tupleIJNS_7MatcherIiEES9_S9_EE
FN:1275,_ZN7testing8internal8MockSpecIFiiiiEE18InternalExpectedAtEPKciS5_S5_
FNDA:5,_ZN7testing8internal8MockSpecIFiiiiEE18InternalExpectedAtEPKciS5_S5_
FN:1275,_ZN7testing8internal8MockSpecIFiiEE18InternalExpectedAtEPKciS5_S5_
FNDA:4,_ZN7testing8internal8MockSpecIFiiEE18InternalExpectedAtEPKciS5_S5_
FN:1288,_ZN7testing8internal8MockSpecIFiiiiEEclERKNS0_15WithoutMatchersEPv
FNDA:5,_ZN7testing8internal8MockSpecIFiiiiEEclERKNS0_15WithoutMatchersEPv
FN:1288,_ZN7testing8internal8MockSpecIFiiEEclERKNS0_15WithoutMatchersEPv
FNDA:4,_ZN7testing8internal8MockSpecIFiiEEclERKNS0_15WithoutMatchersEPv
FN:1350,_ZN7testing8internal19PrintAsActionResultIiEEvRKT_RSo
FNDA:1,_ZN7testing8internal19PrintAsActionResultIiEEvRKT_RSo
FN:1364,_ZN7testing8internal7CleanupC2ESt8functionIFvvEE
FNDA:1,_ZN7testing8internal7CleanupC2ESt8functionIFvvEE
FN:1365,_ZN7testing8internal7CleanupD2Ev
FNDA:1,_ZN7testing8internal7CleanupD2Ev
FN:1383,_ZN7testing8internal14FunctionMockerIFiiiiEEC2Ev
FNDA:5,_ZN7testing8internal14FunctionMockerIFiiiiEEC2Ev
FN:1383,_ZN7testing8internal14FunctionMockerIFiiEEC2Ev
FNDA:5,_ZN7testing8internal14FunctionMockerIFiiEEC2Ev
FN:1403,_ZN7testing8internal14FunctionMockerIFiiiiEED2Ev
FNDA:5,_ZN7testing8internal14FunctionMockerIFiiiiEED2Ev
FN:1403,_ZN7testing8internal14FunctionMockerIFiiiiEED0Ev
FNDA:0,_ZN7testing8internal14FunctionMockerIFiiiiEED0Ev
FN:1403,_ZN7testing8internal14FunctionMockerIFiiEED2Ev
FNDA:5,_ZN7testing8internal14FunctionMockerIFiiEED2Ev
FN:1403,_ZN7testing8internal14FunctionMockerIFiiEED0Ev
FNDA:0,_ZN7testing8internal14FunctionMockerIFiiEED0Ev
FN:1413,_ZNK7testing8internal14FunctionMockerIFiiiiEE14FindOnCallSpecERKSt5tupleIJiiiEE
FNDA:0,_ZNK7testing8internal14FunctionMockerIFiiiiEE14FindOnCallSpecERKSt5tupleIJiiiEE
FN:1413,_ZNK7testing8internal14FunctionMockerIFiiEE14FindOnCallSpecERKSt5tupleIJiEE
FNDA:2,_ZNK7testing8internal14FunctionMockerIFiiEE14FindOnCallSpecERKSt5tupleIJiEE
FN:1431,_ZNK7testing8internal14FunctionMockerIFiiiiEE20PerformDefaultActionEOSt5tupleIJiiiEERKNSt7__cxx1112basic_stringIcSt11char_traitsIcESaIcEEE
FNDA:0,_ZNK7testing8internal14FunctionMockerIFiiiiEE20PerformDefaultActionEOSt5tupleIJiiiEERKNSt7__cxx1112basic_stringIcSt11char_traitsIcESaIcEEE
FN:1431,_ZNK7testing8internal14FunctionMockerIFiiEE20PerformDefaultActionEOSt5tupleIJiEERKNSt7__cxx1112basic_stringIcSt11char_traitsIcESaIcEEE
FNDA:1,_ZNK7testing8internal14FunctionMockerIFiiEE20PerformDefaultActionEOSt5tupleIJiEERKNSt7__cxx1112basic_stringIcSt11char_traitsIcESaIcEEE
FN:1453,_ZN7testing8internal14FunctionMockerIFiiEE25ClearDefaultActionsLockedEv
FNDA:5,_ZN7testing8internal14FunctionMockerIFiiEE25ClearDefaultActionsLockedEv
FN:1453,_ZN7testing8internal14FunctionMockerIFiiiiEE25ClearDefaultActionsLockedEv
FNDA:5,_ZN7testing8internal14FunctionMockerIFiiiiEE25ClearDefaultActionsLockedEv
FN:1481,_ZN7testing8internal14FunctionMockerIFiiiiEE6InvokeEiii
FNDA:5,_ZN7testing8internal14FunctionMockerIFiiiiEE6InvokeEiii
FN:1481,_ZN7testing8internal14FunctionMockerIFiiEE6InvokeEi
FNDA:5,_ZN7testing8internal14FunctionMockerIFiiEE6InvokeEi
FN:1485,_ZN7testing8internal14FunctionMockerIFiiEE4WithENS_7MatcherIiEE
FNDA:4,_ZN7testing8internal14FunctionMockerIFiiEE4WithENS_7MatcherIiEE
FN:1485,_ZN7testing8internal14FunctionMockerIFiiiiEE4WithENS_7MatcherIiEES5_S5_
FNDA:5,_ZN7testing8internal14FunctionMockerIFiiiiEE4WithENS_7MatcherIiEES5_S5_
FN:1504,_ZN7testing8internal14FunctionMockerIFiiEE17AddNewExpectationEPKciRKNSt7__cxx1112basic_stringIcSt11char_traitsIcESaIcEEERKSt5tupleIJNS_7MatcherIiEEEE
FNDA:4,_ZN7testing8internal14FunctionMockerIFiiEE17AddNewExpectationEPKciRKNSt7__cxx1112basic_stringIcSt11char_traitsIcESaIcEEERKSt5tupleIJNS_7MatcherIiEEEE
FN:1504,_ZN7testing8internal14FunctionMockerIFiiiiEE17AddNewExpectationEPKciRKNSt7__cxx1112basic_stringIcSt11char_traitsIcESaIcEEERKSt5tupleIJNS_7MatcherIiEESG_SG_EE
FNDA:5,_ZN7testing8internal14FunctionMockerIFiiiiEE17AddNewExpectationEPKciRKNSt7__cxx1112basic_stringIcSt11char_traitsIcESaIcEEERKSt5tupleIJNS_7MatcherIiEESG_SG_EE
FN:1534,_ZNK7testing8internal14FunctionMockerIFiiiiEE23DescribeDefaultActionToERKSt5tupleIJiiiEEPSo
FNDA:0,_ZNK7testing8internal14FunctionMockerIFiiiiEE23DescribeDefaultActionToERKSt5tupleIJiiiEEPSo
FN:1534,_ZNK7testing8internal14FunctionMockerIFiiEE23DescribeDefaultActionToERKSt5tupleIJiEEPSo
FNDA:1,_ZNK7testing8internal14FunctionMockerIFiiEE23DescribeDefaultActionToERKSt5tupleIJiEEPSo
FN:1550,_ZNK7testing8internal14FunctionMockerIFiiEE32UntypedDescribeUninterestingCallEPKvPSo
FNDA:1,_ZNK7testing8internal14FunctionMockerIFiiEE32UntypedDescribeUninterestingCallEPKvPSo
FN:1550,_ZNK7testing8internal14FunctionMockerIFiiiiEE32UntypedDescribeUninterestingCallEPKvPSo
FNDA:0,_ZNK7testing8internal14FunctionMockerIFiiiiEE32UntypedDescribeUninterestingCallEPKvPSo
FN:1577,_ZN7testing8internal14FunctionMockerIFiiEE30UntypedFindMatchingExpectationEPKvPS5_PbPSoS8_
FNDA:4,_ZN7testing8internal14FunctionMockerIFiiEE30UntypedFindMatchingExpectationEPKvPS5_PbPSoS8_
FN:1577,_ZN7testing8internal14FunctionMockerIFiiiiEE30UntypedFindMatchingExpectationEPKvPS5_PbPSoS8_
FNDA:5,_ZN7testing8internal14FunctionMockerIFiiiiEE30UntypedFindMatchingExpectationEPKvPS5_PbPSoS8_
FN:1602,_ZNK7testing8internal14FunctionMockerIFiiEE16UntypedPrintArgsEPKvPSo
FNDA:0,_ZNK7testing8internal14FunctionMockerIFiiEE16UntypedPrintArgsEPKvPSo
FN:1602,_ZNK7testing8internal14FunctionMockerIFiiiiEE16UntypedPrintArgsEPKvPSo
FNDA:0,_ZNK7testing8internal14FunctionMockerIFiiiiEE16UntypedPrintArgsEPKvPSo
FN:1611,_ZNK7testing8internal14FunctionMockerIFiiiiEE29FindMatchingExpectationLockedERKSt5tupleIJiiiEE
FNDA:5,_ZNK7testing8internal14FunctionMockerIFiiiiEE29FindMatchingExpectationLockedERKSt5tupleIJiiiEE
FN:1611,_ZNK7testing8internal14FunctionMockerIFiiEE29FindMatchingExpectationLockedERKSt5tupleIJiEE
FNDA:4,_ZNK7testing8internal14FunctionMockerIFiiEE29FindMatchingExpectationLockedERKSt5tupleIJiEE
FN:1629,_ZNK7testing8internal14FunctionMockerIFiiEE33FormatUnexpectedCallMessageLockedERKSt5tupleIJiEEPSoS8_
FNDA:0,_ZNK7testing8internal14FunctionMockerIFiiEE33FormatUnexpectedCallMessageLockedERKSt5tupleIJiEEPSoS8_
FN:1629,_ZNK7testing8internal14FunctionMockerIFiiiiEE33FormatUnexpectedCallMessageLockedERKSt5tupleIJiiiEEPSoS8_
FNDA:0,_ZNK7testing8internal14FunctionMockerIFiiiiEE33FormatUnexpectedCallMessageLockedERKSt5tupleIJiiiEEPSoS8_
FN:1641,_ZNK7testing8internal14FunctionMockerIFiiiiEE28PrintTriedExpectationsLockedERKSt5tupleIJiiiEEPSo
FNDA:0,_ZNK7testing8internal14FunctionMockerIFiiiiEE28PrintTriedExpectationsLockedERKSt5tupleIJiiiEEPSo
FN:1641,_ZNK7testing8internal14FunctionMockerIFiiEE28PrintTriedExpectationsLockedERKSt5tupleIJiEEPSo
FNDA:0,_ZNK7testing8internal14FunctionMockerIFiiEE28PrintTriedExpectationsLockedERKSt5tupleIJiEEPSo
FN:1667,_ZNK7testing8internal14FunctionMockerIFiiiiEE13PerformActionEPKvOSt5tupleIJiiiEERKNSt7__cxx1112basic_stringIcSt11char_traitsIcESaIcEEE
FNDA:5,_ZNK7testing8internal14FunctionMockerIFiiiiEE13PerformActionEPKvOSt5tupleIJiiiEERKNSt7__cxx1112basic_stringIcSt11char_traitsIcESaIcEEE
FN:1667,_ZNK7testing8internal14FunctionMockerIFiiEE13PerformActionEPKvOSt5tupleIJiEERKNSt7__cxx1112basic_stringIcSt11char_traitsIcESaIcEEE
FNDA:5,_ZNK7testing8internal14FunctionMockerIFiiEE13PerformActionEPKvOSt5tupleIJiEERKNSt7__cxx1112basic_stringIcSt11char_traitsIcESaIcEEE
FN:1692,_ZN7testing8internal14FunctionMockerIFiiiiEE27PerformActionAndPrintResultIiLi0EEEiPKvOSt5tupleIJiiiEERKNSt7__cxx1112basic_stringIcSt11char_traitsIcESaIcEEERSo
FNDA:0,_ZN7testing8internal14FunctionMockerIFiiiiEE27PerformActionAndPrintResultIiLi0EEEiPKvOSt5tupleIJiiiEERKNSt7__cxx1112basic_stringIcSt11char_traitsIcESaIcEEERSo
FN:1692,_ZN7testing8internal14FunctionMockerIFiiEE27PerformActionAndPrintResultIiLi0EEEiPKvOSt5tupleIJiEERKNSt7__cxx1112basic_stringIcSt11char_traitsIcESaIcEEERSo
FNDA:1,_ZN7testing8internal14FunctionMockerIFiiEE27PerformActionAndPrintResultIiLi0EEEiPKvOSt5tupleIJiEERKNSt7__cxx1112basic_stringIcSt11char_traitsIcESaIcEEERSo
FN:1723,_ZN7testing8internal14FunctionMockerIFiiiiEE10InvokeWithEOSt5tupleIJiiiEE
FNDA:5,_ZN7testing8internal14FunctionMockerIFiiiiEE10InvokeWithEOSt5tupleIJiiiEE
FN:1723,_ZN7testing8internal14FunctionMockerIFiiEE10InvokeWithEOSt5tupleIJiEE
FNDA:5,_ZN7testing8internal14FunctionMockerIFiiEE10InvokeWithEOSt5tupleIJiEE
FN:1770,_ZZN7testing8internal14FunctionMockerIFiiEE10InvokeWithEOSt5tupleIJiEEENKUlvE_clEv
FNDA:1,_ZZN7testing8internal14FunctionMockerIFiiEE10InvokeWithEOSt5tupleIJiEEENKUlvE_clEv
FN:1770,_ZZN7testing8internal14FunctionMockerIFiiiiEE10InvokeWithEOSt5tupleIJiiiEEENKUlvE_clEv
FNDA:0,_ZZN7testing8internal14FunctionMockerIFiiiiEE10InvokeWithEOSt5tupleIJiiiEEENKUlvE_clEv
FN:1814,_ZZN7testing8internal14FunctionMockerIFiiiiEE10InvokeWithEOSt5tupleIJiiiEEENKUlvE0_clEv
FNDA:0,_ZZN7testing8internal14FunctionMockerIFiiiiEE10InvokeWithEOSt5tupleIJiiiEEENKUlvE0_clEv
FN:1814,_ZZN7testing8internal14FunctionMockerIFiiEE10InvokeWithEOSt5tupleIJiEEENKUlvE0_clEv
FNDA:0,_ZZN7testing8internal14FunctionMockerIFiiEE10InvokeWithEOSt5tupleIJiEEENKUlvE0_clEv
DA:242,0
DA:243,0
DA:256,0
DA:258,0
DA:259,0
DA:319,0
DA:320,0
DA:319,0
DA:320,0
DA:324,0
DA:325,0
DA:328,0
DA:324,0
DA:325,0
DA:328,0
DA:535,0
DA:536,0
DA:565,9
DA:601,18
DA:602,18
DA:689,0
DA:690,0
DA:691,9
DA:693,36
DA:696,0
DA:697,0
DA:698,0
DA:738,9
DA:740,9
DA:741,9
DA:749,9
DA:752,9
DA:753,9
DA:754,9
DA:764,18
DA:765,18
DA:766,18
DA:770,0
DA:771,0
DA:772,0
DA:773,0
DA:782,18
DA:783,18
DA:784,18
DA:803,9
DA:804,9
DA:805,9
DA:809,9
DA:810,9
DA:811,9
DA:812,9
DA:872,4
DA:882,4
DA:872,5
DA:882,5
DA:884,4
DA:892,4
DA:884,4
DA:887,4
DA:888,8
DA:889,12
DA:890,4
DA:892,8
DA:884,5
DA:892,5
DA:884,5
DA:887,5
DA:888,10
DA:889,15
DA:890,5
DA:892,10
DA:981,4
DA:986,4
DA:987,4
DA:981,5
DA:986,5
DA:987,5
DA:996,4
DA:997,4
DA:1000,4
DA:1002,4
DA:1004,4
DA:1005,4
DA:1007,4
DA:996,5
DA:997,5
DA:1000,5
DA:1002,5
DA:1004,5
DA:1005,5
DA:1007,5
DA:1059,0
DA:1059,0
DA:1063,0
DA:1064,0
DA:1065,0
DA:1066,0
DA:1067,0
DA:1069,0
DA:1063,0
DA:1064,0
DA:1065,0
DA:1066,0
DA:1067,0
DA:1069,0
DA:1080,4
DA:1081,4
DA:1080,5
DA:1081,5
DA:1087,0
DA:1087,0
DA:1094,4
DA:1096,4
DA:1097,4
DA:1094,5
DA:1096,5
DA:1097,5
DA:1102,4
DA:1104,4
DA:1110,4
DA:1111,4
DA:1102,5
DA:1104,5
DA:1110,5
DA:1111,5
DA:1116,0
DA:1118,0
DA:1120,0
DA:1122,0
DA:1123,0
DA:1124,0
DA:1125,0
DA:1127,0
DA:1128,0
DA:1129,0
DA:1130,0
DA:1131,0
DA:1133,0
DA:1134,0
DA:1136,0
DA:1139,0
DA:1140,0
DA:1141,0
DA:1142,0
DA:1143,0
DA:1144,0
DA:1145,0
DA:1146,0
DA:1148,0
DA:1154,0
DA:1156,0
DA:1116,0
DA:1118,0
DA:1120,0
DA:1122,0
DA:1123,0
DA:1124,0
DA:1125,0
DA:1127,0
DA:1128,0
DA:1129,0
DA:1130,0
DA:1131,0
DA:1133,0
DA:1134,0
DA:1136,0
DA:1139,0
DA:1140,0
DA:1141,0
DA:1142,0
DA:1143,0
DA:1144,0
DA:1145,0
DA:1146,0
DA:1148,0
DA:1154,0
DA:1156,0
DA:1159,4
DA:1162,4
DA:1163,4
DA:1164,4
DA:1168,4
DA:1169,4
DA:1173,0
DA:1174,0
DA:1176,0
DA:1178,0
DA:1179,0
DA:1180,0
DA:1184,8
DA:1185,4
DA:1186,4
DA:1159,5
DA:1162,5
DA:1163,5
DA:1164,5
DA:1168,5
DA:1169,5
DA:1173,0
DA:1174,0
DA:1176,0
DA:1178,0
DA:1179,0
DA:1180,0
DA:1184,10
DA:1185,5
DA:1186,5
DA:1196,4
DA:1201,4
DA:1202,4
DA:1204,0
DA:1205,0
DA:1206,0
DA:1207,0
DA:1209,0
DA:1212,4
DA:1213,4
DA:1215,4
DA:1216,0
DA:1220,4
DA:1221,4
DA:1196,5
DA:1201,5
DA:1202,5
DA:1204,0
DA:1205,0
DA:1206,0
DA:1207,0
DA:1209,0
DA:1212,5
DA:1213,5
DA:1215,5
DA:1216,0
DA:1220,5
DA:1221,5
DA:1259,4
DA:1261,4
DA:1259,5
DA:1261,5
DA:1275,4
DA:1278,8
DA:1280,4
DA:1281,4
DA:1282,8
DA:1275,5
DA:1278,10
DA:1280,5
DA:1281,5
DA:1282,10
DA:1288,4
DA:1289,4
DA:1288,5
DA:1289,5
DA:1350,1
DA:1351,1
DA:1353,1
DA:1354,1
DA:1364,1
DA:1365,1
DA:1383,5
DA:1383,5
DA:1403,0
DA:1408,0
DA:1403,5
DA:1404,5
DA:1405,5
DA:1406,5
DA:1407,5
DA:1408,10
DA:1403,0
DA:1408,0
DA:1403,5
DA:1404,5
DA:1405,5
DA:1406,5
DA:1407,5
DA:1408,10
DA:1413,2
DA:1414,2
DA:1416,2
DA:1417,0
DA:1418,0
DA:1421,2
DA:1413,0
DA:1414,0
DA:1416,0
DA:1417,0
DA:1418,0
DA:1421,0
DA:1431,1
DA:1433,1
DA:1434,1
DA:1435,0
DA:1437,2
DA:1442,1
DA:1443,0
DA:1448,1
DA:1431,0
DA:1433,0
DA:1434,0
DA:1435,0
DA:1437,0
DA:1442,0
DA:1443,0
DA:1448,0
DA:1453,5
DA:1455,5
DA:1464,10
DA:1465,5
DA:1467,5
DA:1468,5
DA:1469,5
DA:1470,0
DA:1475,5
DA:1476,5
DA:1453,5
DA:1455,5
DA:1464,10
DA:1465,5
DA:1467,5
DA:1468,5
DA:1469,5
DA:1470,0
DA:1475,5
DA:1476,5
DA:1481,5
DA:1482,5
DA:1481,5
DA:1482,5
DA:1485,4
DA:1486,4
DA:1485,5
DA:1486,5
DA:1504,4
DA:1508,4
DA:1509,4
DA:1510,4
DA:1511,4
DA:1514,4
DA:1517,4
DA:1518,4
DA:1519,0
DA:1522,8
DA:1504,5
DA:1508,5
DA:1509,5
DA:1510,5
DA:1511,5
DA:1514,5
DA:1517,5
DA:1518,5
DA:1519,0
DA:1522,10
DA:1534,1
DA:1536,1
DA:1538,1
DA:1539,1
DA:1543,0
DA:1545,1
DA:1534,0
DA:1536,0
DA:1538,0
DA:1539,0
DA:1543,0
DA:1545,0
DA:1550,1
DA:1553,1
DA:1555,1
DA:1556,1
DA:1557,1
DA:1558,1
DA:1559,1
DA:1550,0
DA:1553,0
DA:1555,0
DA:1556,0
DA:1557,0
DA:1558,0
DA:1559,0
DA:1577,4
DA:1581,4
DA:1583,8
DA:1584,4
DA:1585,4
DA:1586,0
DA:1587,0
DA:1593,4
DA:1594,4
DA:1595,4
DA:1596,0
DA:1597,4
DA:1598,4
DA:1577,5
DA:1581,5
DA:1583,10
DA:1584,5
DA:1585,5
DA:1586,0
DA:1587,0
DA:1593,5
DA:1594,5
DA:1595,5
DA:1596,0
DA:1597,5
DA:1598,5
DA:1602,0
DA:1604,0
DA:1606,0
DA:1607,0
DA:1602,0
DA:1604,0
DA:1606,0
DA:1607,0
DA:1611,4
DA:1613,4
DA:1616,4
DA:1618,4
DA:1620,4
DA:1621,4
DA:1622,4
DA:1625,0
DA:1611,5
DA:1613,5
DA:1616,5
DA:1618,5
DA:1620,5
DA:1621,5
DA:1622,5
DA:1625,0
DA:1629,0
DA:1633,0
DA:1634,0
DA:1635,0
DA:1636,0
DA:1637,0
DA:1629,0
DA:1633,0
DA:1634,0
DA:1635,0
DA:1636,0
DA:1637,0
DA:1641,0
DA:1644,0
DA:1645,0
DA:1646,0
DA:1649,0
DA:1650,0
DA:1652,0
DA:1653,0
DA:1654,0
DA:1655,0
DA:1656,0
DA:1658,0
DA:1659,0
DA:1660,0
DA:1662,0
DA:1641,0
DA:1644,0
DA:1645,0
DA:1646,0
DA:1649,0
DA:1650,0
DA:1652,0
DA:1653,0
DA:1654,0
DA:1655,0
DA:1656,0
DA:1658,0
DA:1659,0
DA:1660,0
DA:1662,0
DA:1667,5
DA:1669,5
DA:1670,1
DA:1675,4
DA:1676,4
DA:1667,5
DA:1669,5
DA:1670,0
DA:1675,5
DA:1676,5
DA:1692,1
DA:1696,1
DA:1698,1
DA:1699,1
DA:1692,0
DA:1696,0
DA:1698,0
DA:1699,0
DA:1723,5
DA:1727,5
DA:1735,1
DA:1736,1
DA:1741,1
DA:1744,1
DA:1747,1
DA:1748,1
DA:1754,1
DA:1757,0
DA:1761,2
DA:1762,1
DA:1769,1
DA:1772,1
DA:1775,4
DA:1776,8
DA:1777,8
DA:1778,8
DA:1779,4
DA:1784,4
DA:1787,4
DA:1793,4
DA:1794,4
DA:1795,4
DA:1797,4
DA:1800,0
DA:1801,0
DA:1805,0
DA:1806,0
DA:1814,0
DA:1831,0
DA:1832,0
DA:1723,5
DA:1727,5
DA:1735,0
DA:1736,0
DA:1741,0
DA:1744,0
DA:1747,0
DA:1748,0
DA:1754,0
DA:1757,0
DA:1761,0
DA:1762,0
DA:1769,0
DA:1772,0
DA:1775,5
DA:1776,10
DA:1777,10
DA:1778,10
DA:1779,5
DA:1784,5
DA:1787,5
DA:1793,5
DA:1794,5
DA:1795,5
DA:1797,5
DA:1800,0
DA:1801,0
DA:1805,0
DA:1806,0
DA:1814,0
DA:1831,0
DA:1832,0
DA:1770,1
DA:1770,0
DA:1814,0
DA:1814,0
DA:1815,0
DA:1817,0
DA:1819,0
DA:1820,0
DA:1822,0
DA:1827,0
end_of_record
SF:/usr/include/c++/9/new
FN:173,_ZnwmPv
FNDA:322,_ZnwmPv
DA:173,322
DA:174,322
end_of_record
SF:/usr/include/c++/9/ext/new_allocator.h
FN:80,_ZN9__gnu_cxx13new_allocatorISt23_Sp_counted_ptr_inplaceIN7testing10OnceActionIFiiEEESaIS5_ELNS_12_Lock_policyE2EEEC2Ev
FNDA:8,_ZN9__gnu_cxx13new_allocatorISt23_Sp_counted_ptr_inplaceIN7testing10OnceActionIFiiEEESaIS5_ELNS_12_Lock_policyE2EEEC2Ev
FN:80,_ZN9__gnu_cxx13new_allocatorIcEC2Ev
FNDA:0,_ZN9__gnu_cxx13new_allocatorIcEC2Ev
FN:80,_ZN9__gnu_cxx13new_allocatorISt13_Rb_tree_nodeIN7testing11ExpectationEEEC2Ev
FNDA:9,_ZN9__gnu_cxx13new_allocatorISt13_Rb_tree_nodeIN7testing11ExpectationEEEC2Ev
FN:80,_ZN9__gnu_cxx13new_allocatorIN7testing10OnceActionIFiiiiEEEEC2Ev
FNDA:5,_ZN9__gnu_cxx13new_allocatorIN7testing10OnceActionIFiiiiEEEEC2Ev
FN:80,_ZN9__gnu_cxx13new_allocatorIN7testing10OnceActionIFiiEEEEC2Ev
FNDA:4,_ZN9__gnu_cxx13new_allocatorIN7testing10OnceActionIFiiEEEEC2Ev
FN:80,_ZN9__gnu_cxx13new_allocatorIPKvEC2Ev
FNDA:29,_ZN9__gnu_cxx13new_allocatorIPKvEC2Ev
FN:80,_ZN9__gnu_cxx13new_allocatorIN7testing10OnceActionIFiiiiEE23IgnoreIncomingArgumentsINS1_8internal12ReturnActionIiE4ImplIiEEEEEC2Ev
FNDA:5,_ZN9__gnu_cxx13new_allocatorIN7testing10OnceActionIFiiiiEE23IgnoreIncomingArgumentsINS1_8internal12ReturnActionIiE4ImplIiEEEEEC2Ev
FN:80,_ZN9__gnu_cxx13new_allocatorIN7testing10OnceActionIFiiEE23IgnoreIncomingArgumentsINS1_8internal12ReturnActionIiE4ImplIiEEEEEC2Ev
FNDA:4,_ZN9__gnu_cxx13new_allocatorIN7testing10OnceActionIFiiEE23IgnoreIncomingArgumentsINS1_8internal12ReturnActionIiE4ImplIiEEEEEC2Ev
FN:80,_ZN9__gnu_cxx13new_allocatorISt23_Sp_counted_ptr_inplaceIN7testing10OnceActionIFiiiiEEESaIS5_ELNS_12_Lock_policyE2EEEC2Ev
FNDA:10,_ZN9__gnu_cxx13new_allocatorISt23_Sp_counted_ptr_inplaceIN7testing10OnceActionIFiiiiEEESaIS5_ELNS_12_Lock_policyE2EEEC2Ev
FN:80,_ZN9__gnu_cxx13new_allocatorISt23_Sp_counted_ptr_inplaceIN7testing10OnceActionIFiiiiEE23IgnoreIncomingArgumentsINS2_8internal12ReturnActionIiE4ImplIiEEEESaISC_ELNS_12_Lock_policyE2EEEC2Ev
FNDA:10,_ZN9__gnu_cxx13new_allocatorISt23_Sp_counted_ptr_inplaceIN7testing10OnceActionIFiiiiEE23IgnoreIncomingArgumentsINS2_8internal12ReturnActionIiE4ImplIiEEEESaISC_ELNS_12_Lock_policyE2EEEC2Ev
FN:80,_ZN9__gnu_cxx13new_allocatorISt23_Sp_counted_ptr_inplaceIN7testing10OnceActionIFiiEE23IgnoreIncomingArgumentsINS2_8internal12ReturnActionIiE4ImplIiEEEESaISC_ELNS_12_Lock_policyE2EEEC2Ev
FNDA:8,_ZN9__gnu_cxx13new_allocatorISt23_Sp_counted_ptr_inplaceIN7testing10OnceActionIFiiEE23IgnoreIncomingArgumentsINS2_8internal12ReturnActionIiE4ImplIiEEEESaISC_ELNS_12_Lock_policyE2EEEC2Ev
FN:83,_ZN9__gnu_cxx13new_allocatorIN7testing10OnceActionIFiiEE23IgnoreIncomingArgumentsINS1_8internal12ReturnActionIiE4ImplIiEEEEEC2ERKSC_
FNDA:12,_ZN9__gnu_cxx13new_allocatorIN7testing10OnceActionIFiiEE23IgnoreIncomingArgumentsINS1_8internal12ReturnActionIiE4ImplIiEEEEEC2ERKSC_
FN:83,_ZN9__gnu_cxx13new_allocatorIN7testing10OnceActionIFiiEEEEC2ERKS5_
FNDA:12,_ZN9__gnu_cxx13new_allocatorIN7testing10OnceActionIFiiEEEEC2ERKS5_
FN:83,_ZN9__gnu_cxx13new_allocatorIN7testing10OnceActionIFiiiiEE23IgnoreIncomingArgumentsINS1_8internal12ReturnActionIiE4ImplIiEEEEEC2ERKSC_
FNDA:15,_ZN9__gnu_cxx13new_allocatorIN7testing10OnceActionIFiiiiEE23IgnoreIncomingArgumentsINS1_8internal12ReturnActionIiE4ImplIiEEEEEC2ERKSC_
FN:83,_ZN9__gnu_cxx13new_allocatorIN7testing10OnceActionIFiiiiEEEEC2ERKS5_
FNDA:15,_ZN9__gnu_cxx13new_allocatorIN7testing10OnceActionIFiiiiEEEEC2ERKS5_
FN:83,_ZN9__gnu_cxx13new_allocatorIcEC2ERKS1_
FNDA:0,_ZN9__gnu_cxx13new_allocatorIcEC2ERKS1_
FN:89,_ZN9__gnu_cxx13new_allocatorIN7testing10OnceActionIFiiiiEEEED2Ev
FNDA:20,_ZN9__gnu_cxx13new_allocatorIN7testing10OnceActionIFiiiiEEEED2Ev
FN:89,_ZN9__gnu_cxx13new_allocatorISt23_Sp_counted_ptr_inplaceIN7testing10OnceActionIFiiEEESaIS5_ELNS_12_Lock_policyE2EEED2Ev
FNDA:8,_ZN9__gnu_cxx13new_allocatorISt23_Sp_counted_ptr_inplaceIN7testing10OnceActionIFiiEEESaIS5_ELNS_12_Lock_policyE2EEED2Ev
FN:89,_ZN9__gnu_cxx13new_allocatorISt23_Sp_counted_ptr_inplaceIN7testing10OnceActionIFiiiiEEESaIS5_ELNS_12_Lock_policyE2EEED2Ev
FNDA:10,_ZN9__gnu_cxx13new_allocatorISt23_Sp_counted_ptr_inplaceIN7testing10OnceActionIFiiiiEEESaIS5_ELNS_12_Lock_policyE2EEED2Ev
FN:89,_ZN9__gnu_cxx13new_allocatorIN7testing10OnceActionIFiiEEEED2Ev
FNDA:16,_ZN9__gnu_cxx13new_allocatorIN7testing10OnceActionIFiiEEEED2Ev
FN:89,_ZN9__gnu_cxx13new_allocatorIN7testing10OnceActionIFiiEE23IgnoreIncomingArgumentsINS1_8internal12ReturnActionIiE4ImplIiEEEEED2Ev
FNDA:16,_ZN9__gnu_cxx13new_allocatorIN7testing10OnceActionIFiiEE23IgnoreIncomingArgumentsINS1_8internal12ReturnActionIiE4ImplIiEEEEED2Ev
FN:89,_ZN9__gnu_cxx13new_allocatorIPKvED2Ev
FNDA:29,_ZN9__gnu_cxx13new_allocatorIPKvED2Ev
FN:89,_ZN9__gnu_cxx13new_allocatorISt13_Rb_tree_nodeIN7testing11ExpectationEEED2Ev
FNDA:9,_ZN9__gnu_cxx13new_allocatorISt13_Rb_tree_nodeIN7testing11ExpectationEEED2Ev
FN:89,_ZN9__gnu_cxx13new_allocatorIcED2Ev
FNDA:0,_ZN9__gnu_cxx13new_allocatorIcED2Ev
FN:89,_ZN9__gnu_cxx13new_allocatorISt23_Sp_counted_ptr_inplaceIN7testing10OnceActionIFiiiiEE23IgnoreIncomingArgumentsINS2_8internal12ReturnActionIiE4ImplIiEEEESaISC_ELNS_12_Lock_policyE2EEED2Ev
FNDA:10,_ZN9__gnu_cxx13new_allocatorISt23_Sp_counted_ptr_inplaceIN7testing10OnceActionIFiiiiEE23IgnoreIncomingArgumentsINS2_8internal12ReturnActionIiE4ImplIiEEEESaISC_ELNS_12_Lock_policyE2EEED2Ev
FN:89,_ZN9__gnu_cxx13new_allocatorIN7testing10OnceActionIFiiiiEE23IgnoreIncomingArgumentsINS1_8internal12ReturnActionIiE4ImplIiEEEEED2Ev
FNDA:20,_ZN9__gnu_cxx13new_allocatorIN7testing10OnceActionIFiiiiEE23IgnoreIncomingArgumentsINS1_8internal12ReturnActionIiE4ImplIiEEEEED2Ev
FN:89,_ZN9__gnu_cxx13new_allocatorISt23_Sp_counted_ptr_inplaceIN7testing10OnceActionIFiiEE23IgnoreIncomingArgumentsINS2_8internal12ReturnActionIiE4ImplIiEEEESaISC_ELNS_12_Lock_policyE2EEED2Ev
FNDA:8,_ZN9__gnu_cxx13new_allocatorISt23_Sp_counted_ptr_inplaceIN7testing10OnceActionIFiiEE23IgnoreIncomingArgumentsINS2_8internal12ReturnActionIiE4ImplIiEEEESaISC_ELNS_12_Lock_policyE2EEED2Ev
FN:102,_ZN9__gnu_cxx13new_allocatorISt10shared_ptrIN7testing8internal15ExpectationBaseEEE8allocateEmPKv
FNDA:9,_ZN9__gnu_cxx13new_allocatorISt10shared_ptrIN7testing8internal15ExpectationBaseEEE8allocateEmPKv
FN:102,_ZN9__gnu_cxx13new_allocatorISt23_Sp_counted_ptr_inplaceIN7testing10OnceActionIFiiiiEE23IgnoreIncomingArgumentsINS2_8internal12ReturnActionIiE4ImplIiEEEESaISC_ELNS_12_Lock_policyE2EEE8allocateEmPKv
FNDA:5,_ZN9__gnu_cxx13new_allocatorISt23_Sp_counted_ptr_inplaceIN7testing10OnceActionIFiiiiEE23IgnoreIncomingArgumentsINS2_8internal12ReturnActionIiE4ImplIiEEEESaISC_ELNS_12_Lock_policyE2EEE8allocateEmPKv
FN:102,_ZN9__gnu_cxx13new_allocatorISt23_Sp_counted_ptr_inplaceIN7testing10OnceActionIFiiEE23IgnoreIncomingArgumentsINS2_8internal12ReturnActionIiE4ImplIiEEEESaISC_ELNS_12_Lock_policyE2EEE8allocateEmPKv
FNDA:4,_ZN9__gnu_cxx13new_allocatorISt23_Sp_counted_ptr_inplaceIN7testing10OnceActionIFiiEE23IgnoreIncomingArgumentsINS2_8internal12ReturnActionIiE4ImplIiEEEESaISC_ELNS_12_Lock_policyE2EEE8allocateEmPKv
FN:102,_ZN9__gnu_cxx13new_allocatorIPKvE8allocateEmS2_
FNDA:9,_ZN9__gnu_cxx13new_allocatorIPKvE8allocateEmS2_
FN:102,_ZN9__gnu_cxx13new_allocatorISt23_Sp_counted_ptr_inplaceIN7testing10OnceActionIFiiiiEEESaIS5_ELNS_12_Lock_policyE2EEE8allocateEmPKv
FNDA:5,_ZN9__gnu_cxx13new_allocatorISt23_Sp_counted_ptr_inplaceIN7testing10OnceActionIFiiiiEEESaIS5_ELNS_12_Lock_policyE2EEE8allocateEmPKv
FN:102,_ZN9__gnu_cxx13new_allocatorISt23_Sp_counted_ptr_inplaceIN7testing10OnceActionIFiiEEESaIS5_ELNS_12_Lock_policyE2EEE8allocateEmPKv
FNDA:4,_ZN9__gnu_cxx13new_allocatorISt23_Sp_counted_ptr_inplaceIN7testing10OnceActionIFiiEEESaIS5_ELNS_12_Lock_policyE2EEE8allocateEmPKv
FN:119,_ZN9__gnu_cxx13new_allocatorISt23_Sp_counted_ptr_inplaceIN7testing10OnceActionIFiiiiEEESaIS5_ELNS_12_Lock_policyE2EEE10deallocateEPS8_m
FNDA:5,_ZN9__gnu_cxx13new_allocatorISt23_Sp_counted_ptr_inplaceIN7testing10OnceActionIFiiiiEEESaIS5_ELNS_12_Lock_policyE2EEE10deallocateEPS8_m
FN:119,_ZN9__gnu_cxx13new_allocatorISt23_Sp_counted_ptr_inplaceIN7testing10OnceActionIFiiEEESaIS5_ELNS_12_Lock_policyE2EEE10deallocateEPS8_m
FNDA:4,_ZN9__gnu_cxx13new_allocatorISt23_Sp_counted_ptr_inplaceIN7testing10OnceActionIFiiEEESaIS5_ELNS_12_Lock_policyE2EEE10deallocateEPS8_m
FN:119,_ZN9__gnu_cxx13new_allocatorISt23_Sp_counted_ptr_inplaceIN7testing10OnceActionIFiiEE23IgnoreIncomingArgumentsINS2_8internal12ReturnActionIiE4ImplIiEEEESaISC_ELNS_12_Lock_policyE2EEE10deallocateEPSF_m
FNDA:4,_ZN9__gnu_cxx13new_allocatorISt23_Sp_counted_ptr_inplaceIN7testing10OnceActionIFiiEE23IgnoreIncomingArgumentsINS2_8internal12ReturnActionIiE4ImplIiEEEESaISC_ELNS_12_Lock_policyE2EEE10deallocateEPSF_m
FN:119,_ZN9__gnu_cxx13new_allocatorISt13_Rb_tree_nodeIN7testing11ExpectationEEE10deallocateEPS4_m
FNDA:0,_ZN9__gnu_cxx13new_allocatorISt13_Rb_tree_nodeIN7testing11ExpectationEEE10deallocateEPS4_m
FN:119,_ZN9__gnu_cxx13new_allocatorISt23_Sp_counted_ptr_inplaceIN7testing10OnceActionIFiiiiEE23IgnoreIncomingArgumentsINS2_8internal12ReturnActionIiE4ImplIiEEEESaISC_ELNS_12_Lock_policyE2EEE10deallocateEPSF_m
FNDA:5,_ZN9__gnu_cxx13new_allocatorISt23_Sp_counted_ptr_inplaceIN7testing10OnceActionIFiiiiEE23IgnoreIncomingArgumentsINS2_8internal12ReturnActionIiE4ImplIiEEEESaISC_ELNS_12_Lock_policyE2EEE10deallocateEPSF_m
FN:119,_ZN9__gnu_cxx13new_allocatorIPKvE10deallocateEPS2_m
FNDA:9,_ZN9__gnu_cxx13new_allocatorIPKvE10deallocateEPS2_m
FN:119,_ZN9__gnu_cxx13new_allocatorISt10shared_ptrIN7testing8internal15ExpectationBaseEEE10deallocateEPS5_m
FNDA:9,_ZN9__gnu_cxx13new_allocatorISt10shared_ptrIN7testing8internal15ExpectationBaseEEE10deallocateEPS5_m
FN:132,_ZNK9__gnu_cxx13new_allocatorISt23_Sp_counted_ptr_inplaceIN7testing10OnceActionIFiiiiEE23IgnoreIncomingArgumentsINS2_8internal12ReturnActionIiE4ImplIiEEEESaISC_ELNS_12_Lock_policyE2EEE8max_sizeEv
FNDA:5,_ZNK9__gnu_cxx13new_allocatorISt23_Sp_counted_ptr_inplaceIN7testing10OnceActionIFiiiiEE23IgnoreIncomingArgumentsINS2_8internal12ReturnActionIiE4ImplIiEEEESaISC_ELNS_12_Lock_policyE2EEE8max_sizeEv
FN:132,_ZNK9__gnu_cxx13new_allocatorISt23_Sp_counted_ptr_inplaceIN7testing10OnceActionIFiiEE23IgnoreIncomingArgumentsINS2_8internal12ReturnActionIiE4ImplIiEEEESaISC_ELNS_12_Lock_policyE2EEE8max_sizeEv
FNDA:4,_ZNK9__gnu_cxx13new_allocatorISt23_Sp_counted_ptr_inplaceIN7testing10OnceActionIFiiEE23IgnoreIncomingArgumentsINS2_8internal12ReturnActionIiE4ImplIiEEEESaISC_ELNS_12_Lock_policyE2EEE8max_sizeEv
FN:132,_ZNK9__gnu_cxx13new_allocatorISt10shared_ptrIN7testing8internal15ExpectationBaseEEE8max_sizeEv
FNDA:27,_ZNK9__gnu_cxx13new_allocatorISt10shared_ptrIN7testing8internal15ExpectationBaseEEE8max_sizeEv
FN:132,_ZNK9__gnu_cxx13new_allocatorISt23_Sp_counted_ptr_inplaceIN7testing10OnceActionIFiiEEESaIS5_ELNS_12_Lock_policyE2EEE8max_sizeEv
FNDA:4,_ZNK9__gnu_cxx13new_allocatorISt23_Sp_counted_ptr_inplaceIN7testing10OnceActionIFiiEEESaIS5_ELNS_12_Lock_policyE2EEE8max_sizeEv
FN:132,_ZNK9__gnu_cxx13new_allocatorIPKvE8max_sizeEv
FNDA:27,_ZNK9__gnu_cxx13new_allocatorIPKvE8max_sizeEv
FN:132,_ZNK9__gnu_cxx13new_allocatorISt23_Sp_counted_ptr_inplaceIN7testing10OnceActionIFiiiiEEESaIS5_ELNS_12_Lock_policyE2EEE8max_sizeEv
FNDA:5,_ZNK9__gnu_cxx13new_allocatorISt23_Sp_counted_ptr_inplaceIN7testing10OnceActionIFiiiiEEESaIS5_ELNS_12_Lock_policyE2EEE8max_sizeEv
FN:144,_ZN9__gnu_cxx13new_allocatorIPKvE9constructIS2_JS2_EEEvPT_DpOT0_
FNDA:9,_ZN9__gnu_cxx13new_allocatorIPKvE9constructIS2_JS2_EEEvPT_DpOT0_
FN:144,_ZN9__gnu_cxx13new_allocatorIN7testing10OnceActionIFiiEE23IgnoreIncomingArgumentsINS1_8internal12ReturnActionIiE4ImplIiEEEEE9constructISB_JSB_EEEvPT_DpOT0_
FNDA:4,_ZN9__gnu_cxx13new_allocatorIN7testing10OnceActionIFiiEE23IgnoreIncomingArgumentsINS1_8internal12ReturnActionIiE4ImplIiEEEEE9constructISB_JSB_EEEvPT_DpOT0_
FN:144,_ZN9__gnu_cxx13new_allocatorIN7testing10OnceActionIFiiiiEE23IgnoreIncomingArgumentsINS1_8internal12ReturnActionIiE4ImplIiEEEEE9constructISB_JSB_EEEvPT_DpOT0_
FNDA:5,_ZN9__gnu_cxx13new_allocatorIN7testing10OnceActionIFiiiiEE23IgnoreIncomingArgumentsINS1_8internal12ReturnActionIiE4ImplIiEEEEE9constructISB_JSB_EEEvPT_DpOT0_
FN:144,_ZN9__gnu_cxx13new_allocatorISt10shared_ptrIN7testing8internal15ExpectationBaseEEE9constructIS5_JS5_EEEvPT_DpOT0_
FNDA:0,_ZN9__gnu_cxx13new_allocatorISt10shared_ptrIN7testing8internal15ExpectationBaseEEE9constructIS5_JS5_EEEvPT_DpOT0_
FN:144,_ZN9__gnu_cxx13new_allocatorISt10shared_ptrIN7testing8internal15ExpectationBaseEEE9constructIS5_JRKS5_EEEvPT_DpOT0_
FNDA:9,_ZN9__gnu_cxx13new_allocatorISt10shared_ptrIN7testing8internal15ExpectationBaseEEE9constructIS5_JRKS5_EEEvPT_DpOT0_
FN:144,_ZN9__gnu_cxx13new_allocatorIN7testing10OnceActionIFiiiiEEEE9constructIS4_JS4_EEEvPT_DpOT0_
FNDA:5,_ZN9__gnu_cxx13new_allocatorIN7testing10OnceActionIFiiiiEEEE9constructIS4_JS4_EEEvPT_DpOT0_
FN:144,_ZN9__gnu_cxx13new_allocatorIN7testing10OnceActionIFiiEEEE9constructIS4_JS4_EEEvPT_DpOT0_
FNDA:4,_ZN9__gnu_cxx13new_allocatorIN7testing10OnceActionIFiiEEEE9constructIS4_JS4_EEEvPT_DpOT0_
FN:150,_ZN9__gnu_cxx13new_allocatorIN7testing10OnceActionIFiiEEEE7destroyIS4_EEvPT_
FNDA:4,_ZN9__gnu_cxx13new_allocatorIN7testing10OnceActionIFiiEEEE7destroyIS4_EEvPT_
FN:150,_ZN9__gnu_cxx13new_allocatorIN7testing10OnceActionIFiiiiEE23IgnoreIncomingArgumentsINS1_8internal12ReturnActionIiE4ImplIiEEEEE7destroyISB_EEvPT_
FNDA:5,_ZN9__gnu_cxx13new_allocatorIN7testing10OnceActionIFiiiiEE23IgnoreIncomingArgumentsINS1_8internal12ReturnActionIiE4ImplIiEEEEE7destroyISB_EEvPT_
FN:150,_ZN9__gnu_cxx13new_allocatorIN7testing10OnceActionIFiiEE23IgnoreIncomingArgumentsINS1_8internal12ReturnActionIiE4ImplIiEEEEE7destroyISB_EEvPT_
FNDA:4,_ZN9__gnu_cxx13new_allocatorIN7testing10OnceActionIFiiEE23IgnoreIncomingArgumentsINS1_8internal12ReturnActionIiE4ImplIiEEEEE7destroyISB_EEvPT_
FN:150,_ZN9__gnu_cxx13new_allocatorIN7testing10OnceActionIFiiiiEEEE7destroyIS4_EEvPT_
FNDA:5,_ZN9__gnu_cxx13new_allocatorIN7testing10OnceActionIFiiiiEEEE7destroyIS4_EEvPT_
FN:150,_ZN9__gnu_cxx13new_allocatorISt13_Rb_tree_nodeIN7testing11ExpectationEEE7destroyIS3_EEvPT_
FNDA:0,_ZN9__gnu_cxx13new_allocatorISt13_Rb_tree_nodeIN7testing11ExpectationEEE7destroyIS3_EEvPT_
FN:150,_ZN9__gnu_cxx13new_allocatorIPKvE7destroyIS2_EEvPT_
FNDA:0,_ZN9__gnu_cxx13new_allocatorIPKvE7destroyIS2_EEvPT_
FN:150,_ZN9__gnu_cxx13new_allocatorISt10shared_ptrIN7testing8internal15ExpectationBaseEEE7destroyIS5_EEvPT_
FNDA:0,_ZN9__gnu_cxx13new_allocatorISt10shared_ptrIN7testing8internal15ExpectationBaseEEE7destroyIS5_EEvPT_
DA:80,8
DA:80,10
DA:80,8
DA:80,10
DA:80,4
DA:80,5
DA:80,29
DA:80,4
DA:80,5
DA:80,9
DA:80,0
DA:83,12
DA:83,15
DA:83,12
DA:83,15
DA:83,0
DA:89,8
DA:89,10
DA:89,8
DA:89,10
DA:89,16
DA:89,20
DA:89,16
DA:89,20
DA:89,29
DA:89,9
DA:89,0
DA:102,4
DA:104,4
DA:105,0
DA:114,4
DA:102,5
DA:104,5
DA:105,0
DA:114,5
DA:102,4
DA:104,4
DA:105,0
DA:114,4
DA:102,5
DA:104,5
DA:105,0
DA:114,5
DA:102,9
DA:104,9
DA:105,0
DA:114,9
DA:102,9
DA:104,9
DA:105,0
DA:114,9
DA:119,4
DA:128,4
DA:129,4
DA:119,5
DA:128,5
DA:129,5
DA:119,4
DA:128,4
DA:129,4
DA:119,5
DA:128,5
DA:129,5
DA:119,9
DA:128,9
DA:129,9
DA:119,9
DA:128,9
DA:129,9
DA:119,0
DA:128,0
DA:129,0
DA:132,4
DA:135,4
DA:132,5
DA:135,5
DA:132,4
DA:135,4
DA:132,5
DA:135,5
DA:132,27
DA:135,27
DA:132,27
DA:135,27
DA:144,4
DA:146,4
DA:144,5
DA:146,5
DA:144,0
DA:146,0
DA:144,4
DA:146,4
DA:144,5
DA:146,5
DA:144,9
DA:146,9
DA:144,9
DA:146,9
DA:150,5
DA:152,5
DA:150,4
DA:152,4
DA:150,5
DA:152,5
DA:150,4
DA:152,4
DA:150,0
DA:152,0
DA:150,0
DA:152,0
DA:150,0
DA:152,0
end_of_record
SF:/usr/include/c++/9/iostream
end_of_record
SF:/usr/include/c++/9/bits/cpp_type_traits.h
FN:428,_ZSt12__miter_baseIPPKvET_S3_
FNDA:0,_ZSt12__miter_baseIPPKvET_S3_
DA:428,0
DA:429,0
end_of_record
SF:/usr/include/x86_64-linux-gnu/c++/9/bits/gthr-default.h
FN:248,_ZL18__gthread_active_pv
FNDA:198,_ZL18__gthread_active_pv
DA:248,198
DA:252,198
end_of_record
SF:/usr/include/c++/9/ext/aligned_buffer.h
FN:64,_ZN9__gnu_cxx16__aligned_membufIN7testing11ExpectationEE7_M_addrEv
FNDA:0,_ZN9__gnu_cxx16__aligned_membufIN7testing11ExpectationEE7_M_addrEv
FN:68,_ZNK9__gnu_cxx16__aligned_membufIN7testing11ExpectationEE7_M_addrEv
FNDA:0,_ZNK9__gnu_cxx16__aligned_membufIN7testing11ExpectationEE7_M_addrEv
FN:72,_ZN9__gnu_cxx16__aligned_membufIN7testing11ExpectationEE6_M_ptrEv
FNDA:0,_ZN9__gnu_cxx16__aligned_membufIN7testing11ExpectationEE6_M_ptrEv
FN:76,_ZNK9__gnu_cxx16__aligned_membufIN7testing11ExpectationEE6_M_ptrEv
FNDA:0,_ZNK9__gnu_cxx16__aligned_membufIN7testing11ExpectationEE6_M_ptrEv
FN:102,_ZN9__gnu_cxx16__aligned_bufferIN7testing10OnceActionIFiiEE23IgnoreIncomingArgumentsINS1_8internal12ReturnActionIiE4ImplIiEEEEE7_M_addrEv
FNDA:12,_ZN9__gnu_cxx16__aligned_bufferIN7testing10OnceActionIFiiEE23IgnoreIncomingArgumentsINS1_8internal12ReturnActionIiE4ImplIiEEEEE7_M_addrEv
FN:102,_ZN9__gnu_cxx16__aligned_bufferIN7testing10OnceActionIFiiiiEE23IgnoreIncomingArgumentsINS1_8internal12ReturnActionIiE4ImplIiEEEEE7_M_addrEv
FNDA:15,_ZN9__gnu_cxx16__aligned_bufferIN7testing10OnceActionIFiiiiEE23IgnoreIncomingArgumentsINS1_8internal12ReturnActionIiE4ImplIiEEEEE7_M_addrEv
FN:102,_ZN9__gnu_cxx16__aligned_bufferIN7testing10OnceActionIFiiEEEE7_M_addrEv
FNDA:12,_ZN9__gnu_cxx16__aligned_bufferIN7testing10OnceActionIFiiEEEE7_M_addrEv
FN:102,_ZN9__gnu_cxx16__aligned_bufferIN7testing10OnceActionIFiiiiEEEE7_M_addrEv
FNDA:15,_ZN9__gnu_cxx16__aligned_bufferIN7testing10OnceActionIFiiiiEEEE7_M_addrEv
FN:114,_ZN9__gnu_cxx16__aligned_bufferIN7testing10OnceActionIFiiEE23IgnoreIncomingArgumentsINS1_8internal12ReturnActionIiE4ImplIiEEEEE6_M_ptrEv
FNDA:12,_ZN9__gnu_cxx16__aligned_bufferIN7testing10OnceActionIFiiEE23IgnoreIncomingArgumentsINS1_8internal12ReturnActionIiE4ImplIiEEEEE6_M_ptrEv
FN:114,_ZN9__gnu_cxx16__aligned_bufferIN7testing10OnceActionIFiiiiEE23IgnoreIncomingArgumentsINS1_8internal12ReturnActionIiE4ImplIiEEEEE6_M_ptrEv
FNDA:15,_ZN9__gnu_cxx16__aligned_bufferIN7testing10OnceActionIFiiiiEE23IgnoreIncomingArgumentsINS1_8internal12ReturnActionIiE4ImplIiEEEEE6_M_ptrEv
FN:114,_ZN9__gnu_cxx16__aligned_bufferIN7testing10OnceActionIFiiEEEE6_M_ptrEv
FNDA:12,_ZN9__gnu_cxx16__aligned_bufferIN7testing10OnceActionIFiiEEEE6_M_ptrEv
FN:114,_ZN9__gnu_cxx16__aligned_bufferIN7testing10OnceActionIFiiiiEEEE6_M_ptrEv
FNDA:15,_ZN9__gnu_cxx16__aligned_bufferIN7testing10OnceActionIFiiiiEEEE6_M_ptrEv
DA:64,0
DA:65,0
DA:68,0
DA:69,0
DA:72,0
DA:73,0
DA:76,0
DA:77,0
DA:102,12
DA:104,12
DA:102,15
DA:104,15
DA:102,12
DA:104,12
DA:102,15
DA:104,15
DA:114,12
DA:115,12
DA:114,15
DA:115,15
DA:114,12
DA:115,12
DA:114,15
DA:115,15
end_of_record
SF:/usr/include/c++/9/bits/stl_construct.h
FN:74,_ZSt10_ConstructISt10shared_ptrIN7testing8internal15ExpectationBaseEEJS4_EEvPT_DpOT0_
FNDA:0,_ZSt10_ConstructISt10shared_ptrIN7testing8internal15ExpectationBaseEEJS4_EEvPT_DpOT0_
FN:97,_ZSt8_DestroyISt10shared_ptrIN7testing8internal15ExpectationBaseEEEvPT_
FNDA:9,_ZSt8_DestroyISt10shared_ptrIN7testing8internal15ExpectationBaseEEEvPT_
FN:105,_ZNSt12_Destroy_auxILb0EE9__destroyIPSt10shared_ptrIN7testing8internal15ExpectationBaseEEEEvT_S8_
FNDA:29,_ZNSt12_Destroy_auxILb0EE9__destroyIPSt10shared_ptrIN7testing8internal15ExpectationBaseEEEEvT_S8_
FN:117,_ZNSt12_Destroy_auxILb1EE9__destroyIPPKvEEvT_S5_
FNDA:29,_ZNSt12_Destroy_auxILb1EE9__destroyIPPKvEEvT_S5_
FN:127,_ZSt8_DestroyIPSt10shared_ptrIN7testing8internal15ExpectationBaseEEEvT_S6_
FNDA:29,_ZSt8_DestroyIPSt10shared_ptrIN7testing8internal15ExpectationBaseEEEvT_S6_
FN:127,_ZSt8_DestroyIPPKvEvT_S3_
FNDA:29,_ZSt8_DestroyIPPKvEvT_S3_
FN:203,_ZSt8_DestroyIPSt10shared_ptrIN7testing8internal15ExpectationBaseEES4_EvT_S6_RSaIT0_E
FNDA:29,_ZSt8_DestroyIPSt10shared_ptrIN7testing8internal15ExpectationBaseEES4_EvT_S6_RSaIT0_E
FN:203,_ZSt8_DestroyIPPKvS1_EvT_S3_RSaIT0_E
FNDA:29,_ZSt8_DestroyIPPKvS1_EvT_S3_RSaIT0_E
DA:74,0
DA:75,0
DA:97,9
DA:98,9
DA:105,38
DA:107,38
DA:108,9
DA:109,29
DA:117,29
DA:127,29
DA:137,29
DA:138,29
DA:127,29
DA:137,29
DA:138,29
DA:203,29
DA:206,29
DA:207,29
DA:203,29
DA:206,29
DA:207,29
end_of_record
SF:/usr/include/c++/9/bits/move.h
FN:47,_ZSt11__addressofISt10shared_ptrIN7testing8internal15ExpectationBaseEEEPT_RS5_
FNDA:9,_ZSt11__addressofISt10shared_ptrIN7testing8internal15ExpectationBaseEEEPT_RS5_
FN:47,_ZSt11__addressofIKZN7testing8internal14FunctionMockerIFiiEE10InvokeWithEOSt5tupleIJiEEEUlvE_EPT_RSA_
FNDA:1,_ZSt11__addressofIKZN7testing8internal14FunctionMockerIFiiEE10InvokeWithEOSt5tupleIJiEEEUlvE_EPT_RSA_
FN:47,_ZSt11__addressofIKZN7testing8internal14FunctionMockerIFiiiiEE10InvokeWithEOSt5tupleIJiiiEEEUlvE_EPT_RSA_
FNDA:0,_ZSt11__addressofIKZN7testing8internal14FunctionMockerIFiiiiEE10InvokeWithEOSt5tupleIJiiiEEEUlvE_EPT_RSA_
FN:47,_ZSt11__addressofISaISt23_Sp_counted_ptr_inplaceIN7testing10OnceActionIFiiiiEEESaIS4_ELN9__gnu_cxx12_Lock_policyE2EEEEPT_RSA_
FNDA:10,_ZSt11__addressofISaISt23_Sp_counted_ptr_inplaceIN7testing10OnceActionIFiiiiEEESaIS4_ELN9__gnu_cxx12_Lock_policyE2EEEEPT_RSA_
FN:47,_ZSt11__addressofISaISt23_Sp_counted_ptr_inplaceIN7testing10OnceActionIFiiEEESaIS4_ELN9__gnu_cxx12_Lock_policyE2EEEEPT_RSA_
FNDA:8,_ZSt11__addressofISaISt23_Sp_counted_ptr_inplaceIN7testing10OnceActionIFiiEEESaIS4_ELN9__gnu_cxx12_Lock_policyE2EEEEPT_RSA_
FN:47,_ZSt11__addressofISaISt23_Sp_counted_ptr_inplaceIN7testing10OnceActionIFiiEE23IgnoreIncomingArgumentsINS1_8internal12ReturnActionIiE4ImplIiEEEESaISB_ELN9__gnu_cxx12_Lock_policyE2EEEEPT_RSH_
FNDA:8,_ZSt11__addressofISaISt23_Sp_counted_ptr_inplaceIN7testing10OnceActionIFiiEE23IgnoreIncomingArgumentsINS1_8internal12ReturnActionIiE4ImplIiEEEESaISB_ELN9__gnu_cxx12_Lock_policyE2EEEEPT_RSH_
FN:47,_ZSt11__addressofISaISt23_Sp_counted_ptr_inplaceIN7testing10OnceActionIFiiiiEE23IgnoreIncomingArgumentsINS1_8internal12ReturnActionIiE4ImplIiEEEESaISB_ELN9__gnu_cxx12_Lock_policyE2EEEEPT_RSH_
FNDA:10,_ZSt11__addressofISaISt23_Sp_counted_ptr_inplaceIN7testing10OnceActionIFiiiiEE23IgnoreIncomingArgumentsINS1_8internal12ReturnActionIiE4ImplIiEEEESaISB_ELN9__gnu_cxx12_Lock_policyE2EEEEPT_RSH_
FN:74,_ZSt7forwardIN7testing8internal9EqMatcherIiEEEOT_RNSt16remove_referenceIS4_E4typeE
FNDA:45,_ZSt7forwardIN7testing8internal9EqMatcherIiEEEOT_RNSt16remove_referenceIS4_E4typeE
FN:74,_ZSt7forwardIN7testing8internal16TypedExpectationIFiiEE13ActionAdaptorEEOT_RNSt16remove_referenceIS6_E4typeE
FNDA:12,_ZSt7forwardIN7testing8internal16TypedExpectationIFiiEE13ActionAdaptorEEOT_RNSt16remove_referenceIS6_E4typeE
FN:74,_ZSt7forwardIN7testing8internal12ReturnActionIiE4ImplIiEEEOT_RNSt16remove_referenceIS6_E4typeE
FNDA:9,_ZSt7forwardIN7testing8internal12ReturnActionIiE4ImplIiEEEOT_RNSt16remove_referenceIS6_E4typeE
FN:74,_ZSt7forwardIN7testing10OnceActionIFiiEEEEOT_RNSt16remove_referenceIS4_E4typeE
FNDA:32,_ZSt7forwardIN7testing10OnceActionIFiiEEEEOT_RNSt16remove_referenceIS4_E4typeE
FN:74,_ZSt7forwardIN7testing10OnceActionIFiiiiEE23IgnoreIncomingArgumentsINS0_8internal12ReturnActionIiE4ImplIiEEEEEOT_RNSt16remove_referenceISB_E4typeE
FNDA:50,_ZSt7forwardIN7testing10OnceActionIFiiiiEE23IgnoreIncomingArgumentsINS0_8internal12ReturnActionIiE4ImplIiEEEEEOT_RNSt16remove_referenceISB_E4typeE
FN:74,_ZSt7forwardIN7testing8internal16TypedExpectationIFiiiiEE13ActionAdaptorEEOT_RNSt16remove_referenceIS6_E4typeE
FNDA:15,_ZSt7forwardIN7testing8internal16TypedExpectationIFiiiiEE13ActionAdaptorEEOT_RNSt16remove_referenceIS6_E4typeE
FN:74,_ZSt7forwardIN7testing10OnceActionIFiiEE23IgnoreIncomingArgumentsINS0_8internal12ReturnActionIiE4ImplIiEEEEEOT_RNSt16remove_referenceISB_E4typeE
FNDA:40,_ZSt7forwardIN7testing10OnceActionIFiiEE23IgnoreIncomingArgumentsINS0_8internal12ReturnActionIiE4ImplIiEEEEEOT_RNSt16remove_referenceISB_E4typeE
FN:74,_ZSt7forwardIRKSt10shared_ptrIN7testing8internal15ExpectationBaseEEEOT_RNSt16remove_referenceIS7_E4typeE
FNDA:27,_ZSt7forwardIRKSt10shared_ptrIN7testing8internal15ExpectationBaseEEEOT_RNSt16remove_referenceIS7_E4typeE
FN:74,_ZSt7forwardIRKN7testing8internal15AnythingMatcherEEOT_RNSt16remove_referenceIS5_E4typeE
FNDA:39,_ZSt7forwardIRKN7testing8internal15AnythingMatcherEEOT_RNSt16remove_referenceIS5_E4typeE
FN:74,_ZSt7forwardIPKvEOT_RNSt16remove_referenceIS2_E4typeE
FNDA:36,_ZSt7forwardIPKvEOT_RNSt16remove_referenceIS2_E4typeE
FN:74,_ZSt7forwardIN7testing7MatcherIiEEEOT_RNSt16remove_referenceIS3_E4typeE
FNDA:91,_ZSt7forwardIN7testing7MatcherIiEEEOT_RNSt16remove_referenceIS3_E4typeE
FN:74,_ZSt7forwardIRKSt8functionIFiiiiEEEOT_RNSt16remove_referenceIS5_E4typeE
FNDA:10,_ZSt7forwardIRKSt8functionIFiiiiEEEOT_RNSt16remove_referenceIS5_E4typeE
FN:74,_ZSt7forwardISt5tupleIJiiiEEEOT_RNSt16remove_referenceIS2_E4typeE
FNDA:20,_ZSt7forwardISt5tupleIJiiiEEEOT_RNSt16remove_referenceIS2_E4typeE
FN:74,_ZSt7forwardIN7testing10OnceActionIFiiiiEEEEOT_RNSt16remove_referenceIS4_E4typeE
FNDA:40,_ZSt7forwardIN7testing10OnceActionIFiiiiEEEEOT_RNSt16remove_referenceIS4_E4typeE
FN:74,_ZSt7forwardIRKSt8functionIFiiEEEOT_RNSt16remove_referenceIS5_E4typeE
FNDA:8,_ZSt7forwardIRKSt8functionIFiiEEEOT_RNSt16remove_referenceIS5_E4typeE
FN:74,_ZSt7forwardIOPKN7testing8internal11MatcherBaseIRKSt5tupleIJiEEEEEOT_RNSt16remove_referenceISB_E4typeE
FNDA:0,_ZSt7forwardIOPKN7testing8internal11MatcherBaseIRKSt5tupleIJiEEEEEOT_RNSt16remove_referenceISB_E4typeE
FN:74,_ZSt7forwardIPKN7testing8internal11MatcherBaseIiEEEOT_RNSt16remove_referenceIS6_E4typeE
FNDA:0,_ZSt7forwardIPKN7testing8internal11MatcherBaseIiEEEOT_RNSt16remove_referenceIS6_E4typeE
FN:74,_ZSt7forwardIiEOT_RNSt16remove_referenceIS0_E4typeE
FNDA:425,_ZSt7forwardIiEOT_RNSt16remove_referenceIS0_E4typeE
FN:74,_ZSt7forwardIPKN7testing8internal15AnythingMatcherEEOT_RNSt16remove_referenceIS5_E4typeE
FNDA:0,_ZSt7forwardIPKN7testing8internal15AnythingMatcherEEOT_RNSt16remove_referenceIS5_E4typeE
FN:74,_ZSt7forwardIPKN7testing8internal11MatcherBaseIRKSt5tupleIJiEEEEEOT_RNSt16remove_referenceISA_E4typeE
FNDA:0,_ZSt7forwardIPKN7testing8internal11MatcherBaseIRKSt5tupleIJiEEEEEOT_RNSt16remove_referenceISA_E4typeE
FN:74,_ZSt7forwardIOPKN7testing8internal11MatcherBaseIiEEEOT_RNSt16remove_referenceIS7_E4typeE
FNDA:0,_ZSt7forwardIOPKN7testing8internal11MatcherBaseIiEEEOT_RNSt16remove_referenceIS7_E4typeE
FN:74,_ZSt7forwardIOPKN7testing8internal11MatcherBaseIRKSt5tupleIJiiiEEEEEOT_RNSt16remove_referenceISB_E4typeE
FNDA:0,_ZSt7forwardIOPKN7testing8internal11MatcherBaseIRKSt5tupleIJiiiEEEEEOT_RNSt16remove_referenceISB_E4typeE
FN:74,_ZSt7forwardIPKN7testing8internal11MatcherBaseIRKSt5tupleIJiiiEEEEEOT_RNSt16remove_referenceISA_E4typeE
FNDA:0,_ZSt7forwardIPKN7testing8internal11MatcherBaseIRKSt5tupleIJiiiEEEEEOT_RNSt16remove_referenceISA_E4typeE
FN:74,_ZSt7forwardIOiEOT_RNSt16remove_referenceIS1_E4typeE
FNDA:19,_ZSt7forwardIOiEOT_RNSt16remove_referenceIS1_E4typeE
FN:74,_ZSt7forwardISt10shared_ptrIN7testing8internal15ExpectationBaseEEEOT_RNSt16remove_referenceIS5_E4typeE
FNDA:0,_ZSt7forwardISt10shared_ptrIN7testing8internal15ExpectationBaseEEEOT_RNSt16remove_referenceIS5_E4typeE
FN:74,_ZSt7forwardIPKN7testing8internal9EqMatcherIiEEEOT_RNSt16remove_referenceIS6_E4typeE
FNDA:0,_ZSt7forwardIPKN7testing8internal9EqMatcherIiEEEOT_RNSt16remove_referenceIS6_E4typeE
FN:74,_ZSt7forwardISt5tupleIJiEEEOT_RNSt16remove_referenceIS2_E4typeE
FNDA:8,_ZSt7forwardISt5tupleIJiEEEOT_RNSt16remove_referenceIS2_E4typeE
FN:99,_ZSt4moveIRSt5tupleIJiiiEEEONSt16remove_referenceIT_E4typeEOS4_
FNDA:15,_ZSt4moveIRSt5tupleIJiiiEEEONSt16remove_referenceIT_E4typeEOS4_
FN:99,_ZSt4moveIRSt9_Any_dataEONSt16remove_referenceIT_E4typeEOS3_
FNDA:84,_ZSt4moveIRSt9_Any_dataEONSt16remove_referenceIT_E4typeEOS3_
FN:99,_ZSt4moveIRSt5tupleIJiEEEONSt16remove_referenceIT_E4typeEOS4_
FNDA:15,_ZSt4moveIRSt5tupleIJiEEEONSt16remove_referenceIT_E4typeEOS4_
FN:99,_ZSt4moveIRPFiRKSt9_Any_dataOiS3_S3_EEONSt16remove_referenceIT_E4typeEOS8_
FNDA:45,_ZSt4moveIRPFiRKSt9_Any_dataOiS3_S3_EEONSt16remove_referenceIT_E4typeEOS8_
FN:99,_ZSt4moveIRSt10shared_ptrIN7testing10OnceActionIFiiiiEEEEEONSt16remove_referenceIT_E4typeEOS8_
FNDA:10,_ZSt4moveIRSt10shared_ptrIN7testing10OnceActionIFiiiiEEEEEONSt16remove_referenceIT_E4typeEOS8_
FN:99,_ZSt4moveIRSt8functionIFvvEEEONSt16remove_referenceIT_E4typeEOS5_
FNDA:1,_ZSt4moveIRSt8functionIFvvEEEONSt16remove_referenceIT_E4typeEOS5_
FN:99,_ZSt4moveIRPFvRKSt9_Any_dataEEONSt16remove_referenceIT_E4typeEOS7_
FNDA:3,_ZSt4moveIRPFvRKSt9_Any_dataEEONSt16remove_referenceIT_E4typeEOS7_
FN:99,_ZSt4moveIRPFbRSt9_Any_dataRKS0_St18_Manager_operationEEONSt16remove_referenceIT_E4typeEOS9_
FNDA:84,_ZSt4moveIRPFbRSt9_Any_dataRKS0_St18_Manager_operationEEONSt16remove_referenceIT_E4typeEOS9_
FN:99,_ZSt4moveIRN7testing10OnceActionIFiiEEEEONSt16remove_referenceIT_E4typeEOS6_
FNDA:8,_ZSt4moveIRN7testing10OnceActionIFiiEEEEONSt16remove_referenceIT_E4typeEOS6_
FN:99,_ZSt4moveIRSaIcEEONSt16remove_referenceIT_E4typeEOS3_
FNDA:0,_ZSt4moveIRSaIcEEONSt16remove_referenceIT_E4typeEOS3_
FN:99,_ZSt4moveIRN7testing10OnceActionIFiiiiEEEEONSt16remove_referenceIT_E4typeEOS6_
FNDA:10,_ZSt4moveIRN7testing10OnceActionIFiiiiEEEEONSt16remove_referenceIT_E4typeEOS6_
FN:99,_ZSt4moveIRiEONSt16remove_referenceIT_E4typeEOS2_
FNDA:99,_ZSt4moveIRiEONSt16remove_referenceIT_E4typeEOS2_
FN:99,_ZSt4moveIRN7testing7MatcherIiEEEONSt16remove_referenceIT_E4typeEOS5_
FNDA:19,_ZSt4moveIRN7testing7MatcherIiEEEONSt16remove_referenceIT_E4typeEOS5_
FN:99,_ZSt4moveIRNSt7__cxx1112basic_stringIcSt11char_traitsIcESaIcEEEEONSt16remove_referenceIT_E4typeEOS8_
FNDA:465,_ZSt4moveIRNSt7__cxx1112basic_stringIcSt11char_traitsIcESaIcEEEEONSt16remove_referenceIT_E4typeEOS8_
FN:99,_ZSt4moveIRPNSt7__cxx1118basic_stringstreamIcSt11char_traitsIcESaIcEEEEONSt16remove_referenceIT_E4typeEOS9_
FNDA:339,_ZSt4moveIRPNSt7__cxx1118basic_stringstreamIcSt11char_traitsIcESaIcEEEEONSt16remove_referenceIT_E4typeEOS9_
FN:99,_ZSt4moveIRPNSt7__cxx1112basic_stringIcSt11char_traitsIcESaIcEEEEONSt16remove_referenceIT_E4typeEOS9_
FNDA:0,_ZSt4moveIRPNSt7__cxx1112basic_stringIcSt11char_traitsIcESaIcEEEEONSt16remove_referenceIT_E4typeEOS9_
FN:99,_ZSt4moveIRPKvEONSt16remove_referenceIT_E4typeEOS4_
FNDA:9,_ZSt4moveIRPKvEONSt16remove_referenceIT_E4typeEOS4_
FN:99,_ZSt4moveIRSt10shared_ptrIN7testing8internal15ExpectationBaseEEEONSt16remove_referenceIT_E4typeEOS7_
FNDA:0,_ZSt4moveIRSt10shared_ptrIN7testing8internal15ExpectationBaseEEEONSt16remove_referenceIT_E4typeEOS7_
FN:99,_ZSt4moveIRN7testing8internal12ReturnActionIiE4ImplIiEEEONSt16remove_referenceIT_E4typeEOS8_
FNDA:9,_ZSt4moveIRN7testing8internal12ReturnActionIiE4ImplIiEEEONSt16remove_referenceIT_E4typeEOS8_
FN:99,_ZSt4moveIRN7testing10OnceActionIFiiEE23IgnoreIncomingArgumentsINS0_8internal12ReturnActionIiE4ImplIiEEEEEONSt16remove_referenceIT_E4typeEOSD_
FNDA:4,_ZSt4moveIRN7testing10OnceActionIFiiEE23IgnoreIncomingArgumentsINS0_8internal12ReturnActionIiE4ImplIiEEEEEONSt16remove_referenceIT_E4typeEOSD_
FN:99,_ZSt4moveIRN7testing10OnceActionIFiiiiEE23IgnoreIncomingArgumentsINS0_8internal12ReturnActionIiE4ImplIiEEEEEONSt16remove_referenceIT_E4typeEOSD_
FNDA:5,_ZSt4moveIRN7testing10OnceActionIFiiiiEE23IgnoreIncomingArgumentsINS0_8internal12ReturnActionIiE4ImplIiEEEEEONSt16remove_referenceIT_E4typeEOSD_
FN:99,_ZSt4moveIRN7testing8internal16TypedExpectationIFiiEE13ActionAdaptorEEONSt16remove_referenceIT_E4typeEOS8_
FNDA:12,_ZSt4moveIRN7testing8internal16TypedExpectationIFiiEE13ActionAdaptorEEONSt16remove_referenceIT_E4typeEOS8_
FN:99,_ZSt4moveIRN7testing8internal16TypedExpectationIFiiiiEE13ActionAdaptorEEONSt16remove_referenceIT_E4typeEOS8_
FNDA:15,_ZSt4moveIRN7testing8internal16TypedExpectationIFiiiiEE13ActionAdaptorEEONSt16remove_referenceIT_E4typeEOS8_
FN:99,_ZSt4moveIRSt11_Tuple_implILm2EJiEEEONSt16remove_referenceIT_E4typeEOS4_
FNDA:5,_ZSt4moveIRSt11_Tuple_implILm2EJiEEEONSt16remove_referenceIT_E4typeEOS4_
FN:99,_ZSt4moveIRN7testing10OnceActionIFiiEE18StdFunctionAdaptorINS3_23IgnoreIncomingArgumentsINS0_8internal12ReturnActionIiE4ImplIiEEEEEEEONSt16remove_referenceIT_E4typeEOSF_
FNDA:12,_ZSt4moveIRN7testing10OnceActionIFiiEE18StdFunctionAdaptorINS3_23IgnoreIncomingArgumentsINS0_8internal12ReturnActionIiE4ImplIiEEEEEEEONSt16remove_referenceIT_E4typeEOSF_
FN:99,_ZSt4moveIRSt10shared_ptrIN7testing10OnceActionIFiiEE23IgnoreIncomingArgumentsINS1_8internal12ReturnActionIiE4ImplIiEEEEEEONSt16remove_referenceIT_E4typeEOSF_
FNDA:4,_ZSt4moveIRSt10shared_ptrIN7testing10OnceActionIFiiEE23IgnoreIncomingArgumentsINS1_8internal12ReturnActionIiE4ImplIiEEEEEEONSt16remove_referenceIT_E4typeEOSF_
FN:99,_ZSt4moveIRN7testing10OnceActionIFiiiiEE18StdFunctionAdaptorINS3_23IgnoreIncomingArgumentsINS0_8internal12ReturnActionIiE4ImplIiEEEEEEEONSt16remove_referenceIT_E4typeEOSF_
FNDA:15,_ZSt4moveIRN7testing10OnceActionIFiiiiEE18StdFunctionAdaptorINS3_23IgnoreIncomingArgumentsINS0_8internal12ReturnActionIiE4ImplIiEEEEEEEONSt16remove_referenceIT_E4typeEOSF_
FN:99,_ZSt4moveIRSt10shared_ptrIN7testing10OnceActionIFiiiiEE23IgnoreIncomingArgumentsINS1_8internal12ReturnActionIiE4ImplIiEEEEEEONSt16remove_referenceIT_E4typeEOSF_
FNDA:5,_ZSt4moveIRSt10shared_ptrIN7testing10OnceActionIFiiiiEE23IgnoreIncomingArgumentsINS1_8internal12ReturnActionIiE4ImplIiEEEEEEONSt16remove_referenceIT_E4typeEOSF_
FN:99,_ZSt4moveIRSt11_Tuple_implILm1EJiiEEEONSt16remove_referenceIT_E4typeEOS4_
FNDA:5,_ZSt4moveIRSt11_Tuple_implILm1EJiiEEEONSt16remove_referenceIT_E4typeEOS4_
FN:99,_ZSt4moveIRN7testing6ActionIFiiiiEEEEONSt16remove_referenceIT_E4typeEOS6_
FNDA:5,_ZSt4moveIRN7testing6ActionIFiiiiEEEEONSt16remove_referenceIT_E4typeEOS6_
FN:99,_ZSt4moveIRZN7testing8internal14FunctionMockerIFiiEE10InvokeWithEOSt5tupleIJiEEEUlvE0_EONSt16remove_referenceIT_E4typeEOSB_
FNDA:0,_ZSt4moveIRZN7testing8internal14FunctionMockerIFiiEE10InvokeWithEOSt5tupleIJiEEEUlvE0_EONSt16remove_referenceIT_E4typeEOSB_
FN:99,_ZSt4moveIRZN7testing8internal14FunctionMockerIFiiEE10InvokeWithEOSt5tupleIJiEEEUlvE_EONSt16remove_referenceIT_E4typeEOSB_
FNDA:3,_ZSt4moveIRZN7testing8internal14FunctionMockerIFiiEE10InvokeWithEOSt5tupleIJiEEEUlvE_EONSt16remove_referenceIT_E4typeEOSB_
FN:99,_ZSt4moveIRZN7testing8internal14FunctionMockerIFiiiiEE10InvokeWithEOSt5tupleIJiiiEEEUlvE0_EONSt16remove_referenceIT_E4typeEOSB_
FNDA:0,_ZSt4moveIRZN7testing8internal14FunctionMockerIFiiiiEE10InvokeWithEOSt5tupleIJiiiEEEUlvE0_EONSt16remove_referenceIT_E4typeEOSB_
FN:99,_ZSt4moveIRZN7testing8internal14FunctionMockerIFiiiiEE10InvokeWithEOSt5tupleIJiiiEEEUlvE_EONSt16remove_referenceIT_E4typeEOSB_
FNDA:0,_ZSt4moveIRZN7testing8internal14FunctionMockerIFiiiiEE10InvokeWithEOSt5tupleIJiiiEEEUlvE_EONSt16remove_referenceIT_E4typeEOSB_
FN:99,_ZSt4moveIRN7testing6ActionIFiiEEEEONSt16remove_referenceIT_E4typeEOS6_
FNDA:4,_ZSt4moveIRN7testing6ActionIFiiEEEEONSt16remove_referenceIT_E4typeEOS6_
FN:99,_ZSt4moveIRSt10shared_ptrIN7testing10OnceActionIFiiEEEEEONSt16remove_referenceIT_E4typeEOS8_
FNDA:8,_ZSt4moveIRSt10shared_ptrIN7testing10OnceActionIFiiEEEEEONSt16remove_referenceIT_E4typeEOS8_
FN:99,_ZSt4moveIRPFiRKSt9_Any_dataOiEEONSt16remove_referenceIT_E4typeEOS8_
FNDA:36,_ZSt4moveIRPFiRKSt9_Any_dataOiEEONSt16remove_referenceIT_E4typeEOS8_
FN:182,_ZSt4swapISt9_Any_dataENSt9enable_ifIXsrSt6__and_IJSt6__not_ISt15__is_tuple_likeIT_EESt21is_move_constructibleIS5_ESt18is_move_assignableIS5_EEE5valueEvE4typeERS5_SF_
FNDA:28,_ZSt4swapISt9_Any_dataENSt9enable_ifIXsrSt6__and_IJSt6__not_ISt15__is_tuple_likeIT_EESt21is_move_constructibleIS5_ESt18is_move_assignableIS5_EEE5valueEvE4typeERS5_SF_
FN:182,_ZSt4swapIPFbRSt9_Any_dataRKS0_St18_Manager_operationEENSt9enable_ifIXsrSt6__and_IJSt6__not_ISt15__is_tuple_likeIT_EESt21is_move_constructibleISB_ESt18is_move_assignableISB_EEE5valueEvE4typeERSB_SL_
FNDA:28,_ZSt4swapIPFbRSt9_Any_dataRKS0_St18_Manager_operationEENSt9enable_ifIXsrSt6__and_IJSt6__not_ISt15__is_tuple_likeIT_EESt21is_move_constructibleISB_ESt18is_move_assignableISB_EEE5valueEvE4typeERSB_SL_
FN:182,_ZSt4swapIPFvRKSt9_Any_dataEENSt9enable_ifIXsrSt6__and_IJSt6__not_ISt15__is_tuple_likeIT_EESt21is_move_constructibleIS9_ESt18is_move_assignableIS9_EEE5valueEvE4typeERS9_SJ_
FNDA:1,_ZSt4swapIPFvRKSt9_Any_dataEENSt9enable_ifIXsrSt6__and_IJSt6__not_ISt15__is_tuple_likeIT_EESt21is_move_constructibleIS9_ESt18is_move_assignableIS9_EEE5valueEvE4typeERS9_SJ_
FN:182,_ZSt4swapIPFiRKSt9_Any_dataOiEENSt9enable_ifIXsrSt6__and_IJSt6__not_ISt15__is_tuple_likeIT_EESt21is_move_constructibleISA_ESt18is_move_assignableISA_EEE5valueEvE4typeERSA_SK_
FNDA:12,_ZSt4swapIPFiRKSt9_Any_dataOiEENSt9enable_ifIXsrSt6__and_IJSt6__not_ISt15__is_tuple_likeIT_EESt21is_move_constructibleISA_ESt18is_move_assignableISA_EEE5valueEvE4typeERSA_SK_
FN:182,_ZSt4swapIPFiRKSt9_Any_dataOiS3_S3_EENSt9enable_ifIXsrSt6__and_IJSt6__not_ISt15__is_tuple_likeIT_EESt21is_move_constructibleISA_ESt18is_move_assignableISA_EEE5valueEvE4typeERSA_SK_
FNDA:15,_ZSt4swapIPFiRKSt9_Any_dataOiS3_S3_EENSt9enable_ifIXsrSt6__and_IJSt6__not_ISt15__is_tuple_likeIT_EESt21is_move_constructibleISA_ESt18is_move_assignableISA_EEE5valueEvE4typeERSA_SK_
DA:47,8
DA:48,8
DA:47,10
DA:48,10
DA:47,8
DA:48,8
DA:47,10
DA:48,10
DA:47,9
DA:48,9
DA:47,1
DA:48,1
DA:47,0
DA:48,0
DA:74,10
DA:75,10
DA:74,425
DA:75,425
DA:74,91
DA:75,91
DA:74,39
DA:75,39
DA:74,45
DA:75,45
DA:74,9
DA:75,9
DA:74,40
DA:75,40
DA:74,15
DA:75,15
DA:74,32
DA:75,32
DA:74,12
DA:75,12
DA:74,50
DA:75,50
DA:74,40
DA:75,40
DA:74,27
DA:75,27
DA:74,36
DA:75,36
DA:74,0
DA:75,0
DA:74,20
DA:75,20
DA:74,8
DA:75,8
DA:74,8
DA:75,8
DA:74,0
DA:75,0
DA:74,0
DA:75,0
DA:74,0
DA:75,0
DA:74,19
DA:75,19
DA:74,0
DA:75,0
DA:74,0
DA:75,0
DA:74,0
DA:75,0
DA:74,0
DA:75,0
DA:74,0
DA:75,0
DA:99,8
DA:100,8
DA:99,36
DA:100,36
DA:99,5
DA:100,5
DA:99,10
DA:100,10
DA:99,45
DA:100,45
DA:99,15
DA:100,15
DA:99,15
DA:100,15
DA:99,3
DA:100,3
DA:99,84
DA:100,84
DA:99,84
DA:100,84
DA:99,8
DA:100,8
DA:99,10
DA:100,10
DA:99,99
DA:100,99
DA:99,19
DA:100,19
DA:99,0
DA:100,0
DA:99,339
DA:100,339
DA:99,465
DA:100,465
DA:99,0
DA:100,0
DA:99,1
DA:100,1
DA:99,15
DA:100,15
DA:99,9
DA:100,9
DA:99,4
DA:100,4
DA:99,5
DA:100,5
DA:99,12
DA:100,12
DA:99,15
DA:100,15
DA:99,5
DA:100,5
DA:99,12
DA:100,12
DA:99,4
DA:100,4
DA:99,0
DA:100,0
DA:99,5
DA:100,5
DA:99,5
DA:100,5
DA:99,9
DA:100,9
DA:99,0
DA:100,0
DA:99,3
DA:100,3
DA:99,0
DA:100,0
DA:99,0
DA:100,0
DA:99,4
DA:100,4
DA:182,12
DA:193,12
DA:194,12
DA:195,12
DA:196,12
DA:182,15
DA:193,15
DA:194,15
DA:195,15
DA:196,15
DA:182,1
DA:193,1
DA:194,1
DA:195,1
DA:196,1
DA:182,28
DA:193,28
DA:194,28
DA:195,28
DA:196,28
DA:182,28
DA:193,28
DA:194,28
DA:195,28
DA:196,28
end_of_record
SF:/usr/include/c++/9/bits/std_function.h
FN:87,_ZNSt9_Any_data9_M_accessEv
FNDA:56,_ZNSt9_Any_data9_M_accessEv
FN:88,_ZNKSt9_Any_data9_M_accessEv
FNDA:28,_ZNKSt9_Any_data9_M_accessEv
FN:92,_ZNSt9_Any_data9_M_accessIPN7testing10OnceActionIFiiEE18StdFunctionAdaptorINS4_23IgnoreIncomingArgumentsINS1_8internal12ReturnActionIiE4ImplIiEEEEEEEERT_v
FNDA:8,_ZNSt9_Any_data9_M_accessIPN7testing10OnceActionIFiiEE18StdFunctionAdaptorINS4_23IgnoreIncomingArgumentsINS1_8internal12ReturnActionIiE4ImplIiEEEEEEEERT_v
FN:92,_ZNSt9_Any_data9_M_accessIPN7testing10OnceActionIFiiiiEE18StdFunctionAdaptorINS4_23IgnoreIncomingArgumentsINS1_8internal12ReturnActionIiE4ImplIiEEEEEEEERT_v
FNDA:10,_ZNSt9_Any_data9_M_accessIPN7testing10OnceActionIFiiiiEE18StdFunctionAdaptorINS4_23IgnoreIncomingArgumentsINS1_8internal12ReturnActionIiE4ImplIiEEEEEEEERT_v
FN:92,_ZNSt9_Any_data9_M_accessIZN7testing8internal14FunctionMockerIFiiEE10InvokeWithEOSt5tupleIJiEEEUlvE_EERT_v
FNDA:1,_ZNSt9_Any_data9_M_accessIZN7testing8internal14FunctionMockerIFiiEE10InvokeWithEOSt5tupleIJiEEEUlvE_EERT_v
FN:92,_ZNSt9_Any_data9_M_accessIPN7testing8internal16TypedExpectationIFiiiiEE13ActionAdaptorEEERT_v
FNDA:20,_ZNSt9_Any_data9_M_accessIPN7testing8internal16TypedExpectationIFiiiiEE13ActionAdaptorEEERT_v
FN:92,_ZNSt9_Any_data9_M_accessIZN7testing8internal14FunctionMockerIFiiiiEE10InvokeWithEOSt5tupleIJiiiEEEUlvE_EERT_v
FNDA:0,_ZNSt9_Any_data9_M_accessIZN7testing8internal14FunctionMockerIFiiiiEE10InvokeWithEOSt5tupleIJiiiEEEUlvE_EERT_v
FN:92,_ZNSt9_Any_data9_M_accessIPZN7testing8internal14FunctionMockerIFiiEE10InvokeWithEOSt5tupleIJiEEEUlvE0_EERT_v
FNDA:0,_ZNSt9_Any_data9_M_accessIPZN7testing8internal14FunctionMockerIFiiEE10InvokeWithEOSt5tupleIJiEEEUlvE0_EERT_v
FN:92,_ZNSt9_Any_data9_M_accessIPZN7testing8internal14FunctionMockerIFiiEE10InvokeWithEOSt5tupleIJiEEEUlvE_EERT_v
FNDA:0,_ZNSt9_Any_data9_M_accessIPZN7testing8internal14FunctionMockerIFiiEE10InvokeWithEOSt5tupleIJiEEEUlvE_EERT_v
FN:92,_ZNSt9_Any_data9_M_accessIPN7testing8internal16TypedExpectationIFiiEE13ActionAdaptorEEERT_v
FNDA:16,_ZNSt9_Any_data9_M_accessIPN7testing8internal16TypedExpectationIFiiEE13ActionAdaptorEEERT_v
FN:92,_ZNSt9_Any_data9_M_accessIPZN7testing8internal14FunctionMockerIFiiiiEE10InvokeWithEOSt5tupleIJiiiEEEUlvE0_EERT_v
FNDA:0,_ZNSt9_Any_data9_M_accessIPZN7testing8internal14FunctionMockerIFiiiiEE10InvokeWithEOSt5tupleIJiiiEEEUlvE0_EERT_v
FN:92,_ZNSt9_Any_data9_M_accessIPZN7testing8internal14FunctionMockerIFiiiiEE10InvokeWithEOSt5tupleIJiiiEEEUlvE_EERT_v
FNDA:0,_ZNSt9_Any_data9_M_accessIPZN7testing8internal14FunctionMockerIFiiiiEE10InvokeWithEOSt5tupleIJiiiEEEUlvE_EERT_v
FN:92,_ZNSt9_Any_data9_M_accessIPKSt9type_infoEERT_v
FNDA:0,_ZNSt9_Any_data9_M_accessIPKSt9type_infoEERT_v
FN:97,_ZNKSt9_Any_data9_M_accessIZN7testing8internal14FunctionMockerIFiiiiEE10InvokeWithEOSt5tupleIJiiiEEEUlvE_EERKT_v
FNDA:0,_ZNKSt9_Any_data9_M_accessIZN7testing8internal14FunctionMockerIFiiiiEE10InvokeWithEOSt5tupleIJiiiEEEUlvE_EERKT_v
FN:97,_ZNKSt9_Any_data9_M_accessIPZN7testing8internal14FunctionMockerIFiiiiEE10InvokeWithEOSt5tupleIJiiiEEEUlvE0_EERKT_v
FNDA:0,_ZNKSt9_Any_data9_M_accessIPZN7testing8internal14FunctionMockerIFiiiiEE10InvokeWithEOSt5tupleIJiiiEEEUlvE0_EERKT_v
FN:97,_ZNKSt9_Any_data9_M_accessIPKZN7testing8internal14FunctionMockerIFiiiiEE10InvokeWithEOSt5tupleIJiiiEEEUlvE0_EERKT_v
FNDA:0,_ZNKSt9_Any_data9_M_accessIPKZN7testing8internal14FunctionMockerIFiiiiEE10InvokeWithEOSt5tupleIJiiiEEEUlvE0_EERKT_v
FN:97,_ZNKSt9_Any_data9_M_accessIZN7testing8internal14FunctionMockerIFiiEE10InvokeWithEOSt5tupleIJiEEEUlvE_EERKT_v
FNDA:1,_ZNKSt9_Any_data9_M_accessIZN7testing8internal14FunctionMockerIFiiEE10InvokeWithEOSt5tupleIJiEEEUlvE_EERKT_v
FN:97,_ZNKSt9_Any_data9_M_accessIPZN7testing8internal14FunctionMockerIFiiEE10InvokeWithEOSt5tupleIJiEEEUlvE0_EERKT_v
FNDA:0,_ZNKSt9_Any_data9_M_accessIPZN7testing8internal14FunctionMockerIFiiEE10InvokeWithEOSt5tupleIJiEEEUlvE0_EERKT_v
FN:97,_ZNKSt9_Any_data9_M_accessIPKZN7testing8internal14FunctionMockerIFiiEE10InvokeWithEOSt5tupleIJiEEEUlvE0_EERKT_v
FNDA:0,_ZNKSt9_Any_data9_M_accessIPKZN7testing8internal14FunctionMockerIFiiEE10InvokeWithEOSt5tupleIJiEEEUlvE0_EERKT_v
FN:97,_ZNKSt9_Any_data9_M_accessIPN7testing8internal16TypedExpectationIFiiEE13ActionAdaptorEEERKT_v
FNDA:4,_ZNKSt9_Any_data9_M_accessIPN7testing8internal16TypedExpectationIFiiEE13ActionAdaptorEEERKT_v
FN:97,_ZNKSt9_Any_data9_M_accessIPKN7testing8internal16TypedExpectationIFiiEE13ActionAdaptorEEERKT_v
FNDA:4,_ZNKSt9_Any_data9_M_accessIPKN7testing8internal16TypedExpectationIFiiEE13ActionAdaptorEEERKT_v
FN:97,_ZNKSt9_Any_data9_M_accessIPKN7testing8internal16TypedExpectationIFiiiiEE13ActionAdaptorEEERKT_v
FNDA:5,_ZNKSt9_Any_data9_M_accessIPKN7testing8internal16TypedExpectationIFiiiiEE13ActionAdaptorEEERKT_v
FN:97,_ZNKSt9_Any_data9_M_accessIPKN7testing10OnceActionIFiiiiEE18StdFunctionAdaptorINS4_23IgnoreIncomingArgumentsINS1_8internal12ReturnActionIiE4ImplIiEEEEEEEERKT_v
FNDA:0,_ZNKSt9_Any_data9_M_accessIPKN7testing10OnceActionIFiiiiEE18StdFunctionAdaptorINS4_23IgnoreIncomingArgumentsINS1_8internal12ReturnActionIiE4ImplIiEEEEEEEERKT_v
FN:97,_ZNKSt9_Any_data9_M_accessIPN7testing8internal16TypedExpectationIFiiiiEE13ActionAdaptorEEERKT_v
FNDA:5,_ZNKSt9_Any_data9_M_accessIPN7testing8internal16TypedExpectationIFiiiiEE13ActionAdaptorEEERKT_v
FN:97,_ZNKSt9_Any_data9_M_accessIPN7testing10OnceActionIFiiiiEE18StdFunctionAdaptorINS4_23IgnoreIncomingArgumentsINS1_8internal12ReturnActionIiE4ImplIiEEEEEEEERKT_v
FNDA:5,_ZNKSt9_Any_data9_M_accessIPN7testing10OnceActionIFiiiiEE18StdFunctionAdaptorINS4_23IgnoreIncomingArgumentsINS1_8internal12ReturnActionIiE4ImplIiEEEEEEEERKT_v
FN:97,_ZNKSt9_Any_data9_M_accessIPN7testing10OnceActionIFiiEE18StdFunctionAdaptorINS4_23IgnoreIncomingArgumentsINS1_8internal12ReturnActionIiE4ImplIiEEEEEEEERKT_v
FNDA:4,_ZNKSt9_Any_data9_M_accessIPN7testing10OnceActionIFiiEE18StdFunctionAdaptorINS4_23IgnoreIncomingArgumentsINS1_8internal12ReturnActionIiE4ImplIiEEEEEEEERKT_v
FN:97,_ZNKSt9_Any_data9_M_accessIPKN7testing10OnceActionIFiiEE18StdFunctionAdaptorINS4_23IgnoreIncomingArgumentsINS1_8internal12ReturnActionIiE4ImplIiEEEEEEEERKT_v
FNDA:0,_ZNKSt9_Any_data9_M_accessIPKN7testing10OnceActionIFiiEE18StdFunctionAdaptorINS4_23IgnoreIncomingArgumentsINS1_8internal12ReturnActionIiE4ImplIiEEEEEEEERKT_v
FN:151,_ZNSt14_Function_base13_Base_managerIN7testing8internal16TypedExpectationIFiiiiEE13ActionAdaptorEE14_M_get_pointerERKSt9_Any_data
FNDA:5,_ZNSt14_Function_base13_Base_managerIN7testing8internal16TypedExpectationIFiiiiEE13ActionAdaptorEE14_M_get_pointerERKSt9_Any_data
FN:151,_ZNSt14_Function_base13_Base_managerIN7testing10OnceActionIFiiiiEE18StdFunctionAdaptorINS4_23IgnoreIncomingArgumentsINS1_8internal12ReturnActionIiE4ImplIiEEEEEEE14_M_get_pointerERKSt9_Any_data
FNDA:5,_ZNSt14_Function_base13_Base_managerIN7testing10OnceActionIFiiiiEE18StdFunctionAdaptorINS4_23IgnoreIncomingArgumentsINS1_8internal12ReturnActionIiE4ImplIiEEEEEEE14_M_get_pointerERKSt9_Any_data
FN:151,_ZNSt14_Function_base13_Base_managerIZN7testing8internal14FunctionMockerIFiiEE10InvokeWithEOSt5tupleIJiEEEUlvE0_E14_M_get_pointerERKSt9_Any_data
FNDA:0,_ZNSt14_Function_base13_Base_managerIZN7testing8internal14FunctionMockerIFiiEE10InvokeWithEOSt5tupleIJiEEEUlvE0_E14_M_get_pointerERKSt9_Any_data
FN:151,_ZNSt14_Function_base13_Base_managerIN7testing8internal16TypedExpectationIFiiEE13ActionAdaptorEE14_M_get_pointerERKSt9_Any_data
FNDA:4,_ZNSt14_Function_base13_Base_managerIN7testing8internal16TypedExpectationIFiiEE13ActionAdaptorEE14_M_get_pointerERKSt9_Any_data
FN:151,_ZNSt14_Function_base13_Base_managerIZN7testing8internal14FunctionMockerIFiiEE10InvokeWithEOSt5tupleIJiEEEUlvE_E14_M_get_pointerERKSt9_Any_data
FNDA:1,_ZNSt14_Function_base13_Base_managerIZN7testing8internal14FunctionMockerIFiiEE10InvokeWithEOSt5tupleIJiEEEUlvE_E14_M_get_pointerERKSt9_Any_data
FN:151,_ZNSt14_Function_base13_Base_managerIN7testing10OnceActionIFiiEE18StdFunctionAdaptorINS4_23IgnoreIncomingArgumentsINS1_8internal12ReturnActionIiE4ImplIiEEEEEEE14_M_get_pointerERKSt9_Any_data
FNDA:4,_ZNSt14_Function_base13_Base_managerIN7testing10OnceActionIFiiEE18StdFunctionAdaptorINS4_23IgnoreIncomingArgumentsINS1_8internal12ReturnActionIiE4ImplIiEEEEEEE14_M_get_pointerERKSt9_Any_data
FN:151,_ZNSt14_Function_base13_Base_managerIZN7testing8internal14FunctionMockerIFiiiiEE10InvokeWithEOSt5tupleIJiiiEEEUlvE0_E14_M_get_pointerERKSt9_Any_data
FNDA:0,_ZNSt14_Function_base13_Base_managerIZN7testing8internal14FunctionMockerIFiiiiEE10InvokeWithEOSt5tupleIJiiiEEEUlvE0_E14_M_get_pointerERKSt9_Any_data
FN:151,_ZNSt14_Function_base13_Base_managerIZN7testing8internal14FunctionMockerIFiiiiEE10InvokeWithEOSt5tupleIJiiiEEEUlvE_E14_M_get_pointerERKSt9_Any_data
FNDA:0,_ZNSt14_Function_base13_Base_managerIZN7testing8internal14FunctionMockerIFiiiiEE10InvokeWithEOSt5tupleIJiiiEEEUlvE_E14_M_get_pointerERKSt9_Any_data
FN:165,_ZNSt14_Function_base13_Base_managerIZN7testing8internal14FunctionMockerIFiiEE10InvokeWithEOSt5tupleIJiEEEUlvE_E8_M_cloneERSt9_Any_dataRKSB_St17integral_constantIbLb1EE
FNDA:0,_ZNSt14_Function_base13_Base_managerIZN7testing8internal14FunctionMockerIFiiEE10InvokeWithEOSt5tupleIJiEEEUlvE_E8_M_cloneERSt9_Any_dataRKSB_St17integral_constantIbLb1EE
FN:165,_ZNSt14_Function_base13_Base_managerIZN7testing8internal14FunctionMockerIFiiiiEE10InvokeWithEOSt5tupleIJiiiEEEUlvE_E8_M_cloneERSt9_Any_dataRKSB_St17integral_constantIbLb1EE
FNDA:0,_ZNSt14_Function_base13_Base_managerIZN7testing8internal14FunctionMockerIFiiiiEE10InvokeWithEOSt5tupleIJiiiEEEUlvE_E8_M_cloneERSt9_Any_dataRKSB_St17integral_constantIbLb1EE
FN:173,_ZNSt14_Function_base13_Base_managerIZN7testing8internal14FunctionMockerIFiiEE10InvokeWithEOSt5tupleIJiEEEUlvE0_E8_M_cloneERSt9_Any_dataRKSB_St17integral_constantIbLb0EE
FNDA:0,_ZNSt14_Function_base13_Base_managerIZN7testing8internal14FunctionMockerIFiiEE10InvokeWithEOSt5tupleIJiEEEUlvE0_E8_M_cloneERSt9_Any_dataRKSB_St17integral_constantIbLb0EE
FN:173,_ZNSt14_Function_base13_Base_managerIZN7testing8internal14FunctionMockerIFiiiiEE10InvokeWithEOSt5tupleIJiiiEEEUlvE0_E8_M_cloneERSt9_Any_dataRKSB_St17integral_constantIbLb0EE
FNDA:0,_ZNSt14_Function_base13_Base_managerIZN7testing8internal14FunctionMockerIFiiiiEE10InvokeWithEOSt5tupleIJiiiEEEUlvE0_E8_M_cloneERSt9_Any_dataRKSB_St17integral_constantIbLb0EE
FN:173,_ZNSt14_Function_base13_Base_managerIN7testing8internal16TypedExpectationIFiiiiEE13ActionAdaptorEE8_M_cloneERSt9_Any_dataRKS8_St17integral_constantIbLb0EE
FNDA:5,_ZNSt14_Function_base13_Base_managerIN7testing8internal16TypedExpectationIFiiiiEE13ActionAdaptorEE8_M_cloneERSt9_Any_dataRKS8_St17integral_constantIbLb0EE
FN:173,_ZNSt14_Function_base13_Base_managerIN7testing8internal16TypedExpectationIFiiEE13ActionAdaptorEE8_M_cloneERSt9_Any_dataRKS8_St17integral_constantIbLb0EE
FNDA:4,_ZNSt14_Function_base13_Base_managerIN7testing8internal16TypedExpectationIFiiEE13ActionAdaptorEE8_M_cloneERSt9_Any_dataRKS8_St17integral_constantIbLb0EE
FN:173,_ZNSt14_Function_base13_Base_managerIN7testing10OnceActionIFiiiiEE18StdFunctionAdaptorINS4_23IgnoreIncomingArgumentsINS1_8internal12ReturnActionIiE4ImplIiEEEEEEE8_M_cloneERSt9_Any_dataRKSF_St17integral_constantIbLb0EE
FNDA:0,_ZNSt14_Function_base13_Base_managerIN7testing10OnceActionIFiiiiEE18StdFunctionAdaptorINS4_23IgnoreIncomingArgumentsINS1_8internal12ReturnActionIiE4ImplIiEEEEEEE8_M_cloneERSt9_Any_dataRKSF_St17integral_constantIbLb0EE
FN:173,_ZNSt14_Function_base13_Base_managerIN7testing10OnceActionIFiiEE18StdFunctionAdaptorINS4_23IgnoreIncomingArgumentsINS1_8internal12ReturnActionIiE4ImplIiEEEEEEE8_M_cloneERSt9_Any_dataRKSF_St17integral_constantIbLb0EE
FNDA:0,_ZNSt14_Function_base13_Base_managerIN7testing10OnceActionIFiiEE18StdFunctionAdaptorINS4_23IgnoreIncomingArgumentsINS1_8internal12ReturnActionIiE4ImplIiEEEEEEE8_M_cloneERSt9_Any_dataRKSF_St17integral_constantIbLb0EE
FN:182,_ZNSt14_Function_base13_Base_managerIZN7testing8internal14FunctionMockerIFiiEE10InvokeWithEOSt5tupleIJiEEEUlvE_E10_M_destroyERSt9_Any_dataSt17integral_constantIbLb1EE
FNDA:1,_ZNSt14_Function_base13_Base_managerIZN7testing8internal14FunctionMockerIFiiEE10InvokeWithEOSt5tupleIJiEEEUlvE_E10_M_destroyERSt9_Any_dataSt17integral_constantIbLb1EE
FN:182,_ZNSt14_Function_base13_Base_managerIZN7testing8internal14FunctionMockerIFiiiiEE10InvokeWithEOSt5tupleIJiiiEEEUlvE_E10_M_destroyERSt9_Any_dataSt17integral_constantIbLb1EE
FNDA:0,_ZNSt14_Function_base13_Base_managerIZN7testing8internal14FunctionMockerIFiiiiEE10InvokeWithEOSt5tupleIJiiiEEEUlvE_E10_M_destroyERSt9_Any_dataSt17integral_constantIbLb1EE
FN:189,_ZNSt14_Function_base13_Base_managerIN7testing8internal16TypedExpectationIFiiiiEE13ActionAdaptorEE10_M_destroyERSt9_Any_dataSt17integral_constantIbLb0EE
FNDA:10,_ZNSt14_Function_base13_Base_managerIN7testing8internal16TypedExpectationIFiiiiEE13ActionAdaptorEE10_M_destroyERSt9_Any_dataSt17integral_constantIbLb0EE
FN:189,_ZNSt14_Function_base13_Base_managerIZN7testing8internal14FunctionMockerIFiiiiEE10InvokeWithEOSt5tupleIJiiiEEEUlvE0_E10_M_destroyERSt9_Any_dataSt17integral_constantIbLb0EE
FNDA:0,_ZNSt14_Function_base13_Base_managerIZN7testing8internal14FunctionMockerIFiiiiEE10InvokeWithEOSt5tupleIJiiiEEEUlvE0_E10_M_destroyERSt9_Any_dataSt17integral_constantIbLb0EE
FN:189,_ZNSt14_Function_base13_Base_managerIN7testing10OnceActionIFiiEE18StdFunctionAdaptorINS4_23IgnoreIncomingArgumentsINS1_8internal12ReturnActionIiE4ImplIiEEEEEEE10_M_destroyERSt9_Any_dataSt17integral_constantIbLb0EE
FNDA:4,_ZNSt14_Function_base13_Base_managerIN7testing10OnceActionIFiiEE18StdFunctionAdaptorINS4_23IgnoreIncomingArgumentsINS1_8internal12ReturnActionIiE4ImplIiEEEEEEE10_M_destroyERSt9_Any_dataSt17integral_constantIbLb0EE
FN:189,_ZNSt14_Function_base13_Base_managerIN7testing8internal16TypedExpectationIFiiEE13ActionAdaptorEE10_M_destroyERSt9_Any_dataSt17integral_constantIbLb0EE
FNDA:8,_ZNSt14_Function_base13_Base_managerIN7testing8internal16TypedExpectationIFiiEE13ActionAdaptorEE10_M_destroyERSt9_Any_dataSt17integral_constantIbLb0EE
FN:189,_ZNSt14_Function_base13_Base_managerIN7testing10OnceActionIFiiiiEE18StdFunctionAdaptorINS4_23IgnoreIncomingArgumentsINS1_8internal12ReturnActionIiE4ImplIiEEEEEEE10_M_destroyERSt9_Any_dataSt17integral_constantIbLb0EE
FNDA:5,_ZNSt14_Function_base13_Base_managerIN7testing10OnceActionIFiiiiEE18StdFunctionAdaptorINS4_23IgnoreIncomingArgumentsINS1_8internal12ReturnActionIiE4ImplIiEEEEEEE10_M_destroyERSt9_Any_dataSt17integral_constantIbLb0EE
FN:189,_ZNSt14_Function_base13_Base_managerIZN7testing8internal14FunctionMockerIFiiEE10InvokeWithEOSt5tupleIJiEEEUlvE0_E10_M_destroyERSt9_Any_dataSt17integral_constantIbLb0EE
FNDA:0,_ZNSt14_Function_base13_Base_managerIZN7testing8internal14FunctionMockerIFiiEE10InvokeWithEOSt5tupleIJiEEEUlvE0_E10_M_destroyERSt9_Any_dataSt17integral_constantIbLb0EE
FN:196,_ZNSt14_Function_base13_Base_managerIN7testing10OnceActionIFiiiiEE18StdFunctionAdaptorINS4_23IgnoreIncomingArgumentsINS1_8internal12ReturnActionIiE4ImplIiEEEEEEE10_M_managerERSt9_Any_dataRKSF_St18_Manager_operation
FNDA:5,_ZNSt14_Function_base13_Base_managerIN7testing10OnceActionIFiiiiEE18StdFunctionAdaptorINS4_23IgnoreIncomingArgumentsINS1_8internal12ReturnActionIiE4ImplIiEEEEEEE10_M_managerERSt9_Any_dataRKSF_St18_Manager_operation
FN:196,_ZNSt14_Function_base13_Base_managerIZN7testing8internal14FunctionMockerIFiiiiEE10InvokeWithEOSt5tupleIJiiiEEEUlvE_E10_M_managerERSt9_Any_dataRKSB_St18_Manager_operation
FNDA:0,_ZNSt14_Function_base13_Base_managerIZN7testing8internal14FunctionMockerIFiiiiEE10InvokeWithEOSt5tupleIJiiiEEEUlvE_E10_M_managerERSt9_Any_dataRKSB_St18_Manager_operation
FN:196,_ZNSt14_Function_base13_Base_managerIN7testing8internal16TypedExpectationIFiiiiEE13ActionAdaptorEE10_M_managerERSt9_Any_dataRKS8_St18_Manager_operation
FNDA:15,_ZNSt14_Function_base13_Base_managerIN7testing8internal16TypedExpectationIFiiiiEE13ActionAdaptorEE10_M_managerERSt9_Any_dataRKS8_St18_Manager_operation
FN:196,_ZNSt14_Function_base13_Base_managerIN7testing8internal16TypedExpectationIFiiEE13ActionAdaptorEE10_M_managerERSt9_Any_dataRKS8_St18_Manager_operation
FNDA:12,_ZNSt14_Function_base13_Base_managerIN7testing8internal16TypedExpectationIFiiEE13ActionAdaptorEE10_M_managerERSt9_Any_dataRKS8_St18_Manager_operation
FN:196,_ZNSt14_Function_base13_Base_managerIZN7testing8internal14FunctionMockerIFiiiiEE10InvokeWithEOSt5tupleIJiiiEEEUlvE0_E10_M_managerERSt9_Any_dataRKSB_St18_Manager_operation
FNDA:0,_ZNSt14_Function_base13_Base_managerIZN7testing8internal14FunctionMockerIFiiiiEE10InvokeWithEOSt5tupleIJiiiEEEUlvE0_E10_M_managerERSt9_Any_dataRKSB_St18_Manager_operation
FN:196,_ZNSt14_Function_base13_Base_managerIN7testing10OnceActionIFiiEE18StdFunctionAdaptorINS4_23IgnoreIncomingArgumentsINS1_8internal12ReturnActionIiE4ImplIiEEEEEEE10_M_managerERSt9_Any_dataRKSF_St18_Manager_operation
FNDA:4,_ZNSt14_Function_base13_Base_managerIN7testing10OnceActionIFiiEE18StdFunctionAdaptorINS4_23IgnoreIncomingArgumentsINS1_8internal12ReturnActionIiE4ImplIiEEEEEEE10_M_managerERSt9_Any_dataRKSF_St18_Manager_operation
FN:196,_ZNSt14_Function_base13_Base_managerIZN7testing8internal14FunctionMockerIFiiEE10InvokeWithEOSt5tupleIJiEEEUlvE_E10_M_managerERSt9_Any_dataRKSB_St18_Manager_operation
FNDA:1,_ZNSt14_Function_base13_Base_managerIZN7testing8internal14FunctionMockerIFiiEE10InvokeWithEOSt5tupleIJiEEEUlvE_E10_M_managerERSt9_Any_dataRKSB_St18_Manager_operation
FN:196,_ZNSt14_Function_base13_Base_managerIZN7testing8internal14FunctionMockerIFiiEE10InvokeWithEOSt5tupleIJiEEEUlvE0_E10_M_managerERSt9_Any_dataRKSB_St18_Manager_operation
FNDA:0,_ZNSt14_Function_base13_Base_managerIZN7testing8internal14FunctionMockerIFiiEE10InvokeWithEOSt5tupleIJiEEEUlvE0_E10_M_managerERSt9_Any_dataRKSB_St18_Manager_operation
FN:222,_ZNSt14_Function_base13_Base_managerIZN7testing8internal14FunctionMockerIFiiiiEE10InvokeWithEOSt5tupleIJiiiEEEUlvE0_E15_M_init_functorERSt9_Any_dataOS9_
FNDA:0,_ZNSt14_Function_base13_Base_managerIZN7testing8internal14FunctionMockerIFiiiiEE10InvokeWithEOSt5tupleIJiiiEEEUlvE0_E15_M_init_functorERSt9_Any_dataOS9_
FN:222,_ZNSt14_Function_base13_Base_managerIN7testing8internal16TypedExpectationIFiiiiEE13ActionAdaptorEE15_M_init_functorERSt9_Any_dataOS6_
FNDA:5,_ZNSt14_Function_base13_Base_managerIN7testing8internal16TypedExpectationIFiiiiEE13ActionAdaptorEE15_M_init_functorERSt9_Any_dataOS6_
FN:222,_ZNSt14_Function_base13_Base_managerIZN7testing8internal14FunctionMockerIFiiEE10InvokeWithEOSt5tupleIJiEEEUlvE_E15_M_init_functorERSt9_Any_dataOS9_
FNDA:1,_ZNSt14_Function_base13_Base_managerIZN7testing8internal14FunctionMockerIFiiEE10InvokeWithEOSt5tupleIJiEEEUlvE_E15_M_init_functorERSt9_Any_dataOS9_
FN:222,_ZNSt14_Function_base13_Base_managerIZN7testing8internal14FunctionMockerIFiiEE10InvokeWithEOSt5tupleIJiEEEUlvE0_E15_M_init_functorERSt9_Any_dataOS9_
FNDA:0,_ZNSt14_Function_base13_Base_managerIZN7testing8internal14FunctionMockerIFiiEE10InvokeWithEOSt5tupleIJiEEEUlvE0_E15_M_init_functorERSt9_Any_dataOS9_
FN:222,_ZNSt14_Function_base13_Base_managerIN7testing8internal16TypedExpectationIFiiEE13ActionAdaptorEE15_M_init_functorERSt9_Any_dataOS6_
FNDA:4,_ZNSt14_Function_base13_Base_managerIN7testing8internal16TypedExpectationIFiiEE13ActionAdaptorEE15_M_init_functorERSt9_Any_dataOS6_
FN:222,_ZNSt14_Function_base13_Base_managerIN7testing10OnceActionIFiiiiEE18StdFunctionAdaptorINS4_23IgnoreIncomingArgumentsINS1_8internal12ReturnActionIiE4ImplIiEEEEEEE15_M_init_functorERSt9_Any_dataOSD_
FNDA:5,_ZNSt14_Function_base13_Base_managerIN7testing10OnceActionIFiiiiEE18StdFunctionAdaptorINS4_23IgnoreIncomingArgumentsINS1_8internal12ReturnActionIiE4ImplIiEEEEEEE15_M_init_functorERSt9_Any_dataOSD_
FN:222,_ZNSt14_Function_base13_Base_managerIZN7testing8internal14FunctionMockerIFiiiiEE10InvokeWithEOSt5tupleIJiiiEEEUlvE_E15_M_init_functorERSt9_Any_dataOS9_
FNDA:0,_ZNSt14_Function_base13_Base_managerIZN7testing8internal14FunctionMockerIFiiiiEE10InvokeWithEOSt5tupleIJiiiEEEUlvE_E15_M_init_functorERSt9_Any_dataOS9_
FN:222,_ZNSt14_Function_base13_Base_managerIN7testing10OnceActionIFiiEE18StdFunctionAdaptorINS4_23IgnoreIncomingArgumentsINS1_8internal12ReturnActionIiE4ImplIiEEEEEEE15_M_init_functorERSt9_Any_dataOSD_
FNDA:4,_ZNSt14_Function_base13_Base_managerIN7testing10OnceActionIFiiEE18StdFunctionAdaptorINS4_23IgnoreIncomingArgumentsINS1_8internal12ReturnActionIiE4ImplIiEEEEEEE15_M_init_functorERSt9_Any_dataOSD_
FN:242,_ZNSt14_Function_base13_Base_managerIZN7testing8internal14FunctionMockerIFiiEE10InvokeWithEOSt5tupleIJiEEEUlvE0_E21_M_not_empty_functionIS9_EEbRKT_
FNDA:0,_ZNSt14_Function_base13_Base_managerIZN7testing8internal14FunctionMockerIFiiEE10InvokeWithEOSt5tupleIJiEEEUlvE0_E21_M_not_empty_functionIS9_EEbRKT_
FN:242,_ZNSt14_Function_base13_Base_managerIZN7testing8internal14FunctionMockerIFiiiiEE10InvokeWithEOSt5tupleIJiiiEEEUlvE_E21_M_not_empty_functionIS9_EEbRKT_
FNDA:0,_ZNSt14_Function_base13_Base_managerIZN7testing8internal14FunctionMockerIFiiiiEE10InvokeWithEOSt5tupleIJiiiEEEUlvE_E21_M_not_empty_functionIS9_EEbRKT_
FN:242,_ZNSt14_Function_base13_Base_managerIN7testing8internal16TypedExpectationIFiiiiEE13ActionAdaptorEE21_M_not_empty_functionIS6_EEbRKT_
FNDA:5,_ZNSt14_Function_base13_Base_managerIN7testing8internal16TypedExpectationIFiiiiEE13ActionAdaptorEE21_M_not_empty_functionIS6_EEbRKT_
FN:242,_ZNSt14_Function_base13_Base_managerIZN7testing8internal14FunctionMockerIFiiEE10InvokeWithEOSt5tupleIJiEEEUlvE_E21_M_not_empty_functionIS9_EEbRKT_
FNDA:1,_ZNSt14_Function_base13_Base_managerIZN7testing8internal14FunctionMockerIFiiEE10InvokeWithEOSt5tupleIJiEEEUlvE_E21_M_not_empty_functionIS9_EEbRKT_
FN:242,_ZNSt14_Function_base13_Base_managerIZN7testing8internal14FunctionMockerIFiiiiEE10InvokeWithEOSt5tupleIJiiiEEEUlvE0_E21_M_not_empty_functionIS9_EEbRKT_
FNDA:0,_ZNSt14_Function_base13_Base_managerIZN7testing8internal14FunctionMockerIFiiiiEE10InvokeWithEOSt5tupleIJiiiEEEUlvE0_E21_M_not_empty_functionIS9_EEbRKT_
FN:242,_ZNSt14_Function_base13_Base_managerIN7testing8internal16TypedExpectationIFiiEE13ActionAdaptorEE21_M_not_empty_functionIS6_EEbRKT_
FNDA:4,_ZNSt14_Function_base13_Base_managerIN7testing8internal16TypedExpectationIFiiEE13ActionAdaptorEE21_M_not_empty_functionIS6_EEbRKT_
FN:242,_ZNSt14_Function_base13_Base_managerIN7testing10OnceActionIFiiiiEE18StdFunctionAdaptorINS4_23IgnoreIncomingArgumentsINS1_8internal12ReturnActionIiE4ImplIiEEEEEEE21_M_not_empty_functionISD_EEbRKT_
FNDA:5,_ZNSt14_Function_base13_Base_managerIN7testing10OnceActionIFiiiiEE18StdFunctionAdaptorINS4_23IgnoreIncomingArgumentsINS1_8internal12ReturnActionIiE4ImplIiEEEEEEE21_M_not_empty_functionISD_EEbRKT_
FN:242,_ZNSt14_Function_base13_Base_managerIN7testing10OnceActionIFiiEE18StdFunctionAdaptorINS4_23IgnoreIncomingArgumentsINS1_8internal12ReturnActionIiE4ImplIiEEEEEEE21_M_not_empty_functionISD_EEbRKT_
FNDA:4,_ZNSt14_Function_base13_Base_managerIN7testing10OnceActionIFiiEE18StdFunctionAdaptorINS4_23IgnoreIncomingArgumentsINS1_8internal12ReturnActionIiE4ImplIiEEEEEEE21_M_not_empty_functionISD_EEbRKT_
FN:247,_ZNSt14_Function_base13_Base_managerIZN7testing8internal14FunctionMockerIFiiEE10InvokeWithEOSt5tupleIJiEEEUlvE_E15_M_init_functorERSt9_Any_dataOS9_St17integral_constantIbLb1EE
FNDA:1,_ZNSt14_Function_base13_Base_managerIZN7testing8internal14FunctionMockerIFiiEE10InvokeWithEOSt5tupleIJiEEEUlvE_E15_M_init_functorERSt9_Any_dataOS9_St17integral_constantIbLb1EE
FN:247,_ZNSt14_Function_base13_Base_managerIZN7testing8internal14FunctionMockerIFiiiiEE10InvokeWithEOSt5tupleIJiiiEEEUlvE_E15_M_init_functorERSt9_Any_dataOS9_St17integral_constantIbLb1EE
FNDA:0,_ZNSt14_Function_base13_Base_managerIZN7testing8internal14FunctionMockerIFiiiiEE10InvokeWithEOSt5tupleIJiiiEEEUlvE_E15_M_init_functorERSt9_Any_dataOS9_St17integral_constantIbLb1EE
FN:251,_ZNSt14_Function_base13_Base_managerIN7testing8internal16TypedExpectationIFiiiiEE13ActionAdaptorEE15_M_init_functorERSt9_Any_dataOS6_St17integral_constantIbLb0EE
FNDA:5,_ZNSt14_Function_base13_Base_managerIN7testing8internal16TypedExpectationIFiiiiEE13ActionAdaptorEE15_M_init_functorERSt9_Any_dataOS6_St17integral_constantIbLb0EE
FN:251,_ZNSt14_Function_base13_Base_managerIZN7testing8internal14FunctionMockerIFiiiiEE10InvokeWithEOSt5tupleIJiiiEEEUlvE0_E15_M_init_functorERSt9_Any_dataOS9_St17integral_constantIbLb0EE
FNDA:0,_ZNSt14_Function_base13_Base_managerIZN7testing8internal14FunctionMockerIFiiiiEE10InvokeWithEOSt5tupleIJiiiEEEUlvE0_E15_M_init_functorERSt9_Any_dataOS9_St17integral_constantIbLb0EE
FN:251,_ZNSt14_Function_base13_Base_managerIN7testing8internal16TypedExpectationIFiiEE13ActionAdaptorEE15_M_init_functorERSt9_Any_dataOS6_St17integral_constantIbLb0EE
FNDA:4,_ZNSt14_Function_base13_Base_managerIN7testing8internal16TypedExpectationIFiiEE13ActionAdaptorEE15_M_init_functorERSt9_Any_dataOS6_St17integral_constantIbLb0EE
FN:251,_ZNSt14_Function_base13_Base_managerIN7testing10OnceActionIFiiEE18StdFunctionAdaptorINS4_23IgnoreIncomingArgumentsINS1_8internal12ReturnActionIiE4ImplIiEEEEEEE15_M_init_functorERSt9_Any_dataOSD_St17integral_constantIbLb0EE
FNDA:4,_ZNSt14_Function_base13_Base_managerIN7testing10OnceActionIFiiEE18StdFunctionAdaptorINS4_23IgnoreIncomingArgumentsINS1_8internal12ReturnActionIiE4ImplIiEEEEEEE15_M_init_functorERSt9_Any_dataOSD_St17integral_constantIbLb0EE
FN:251,_ZNSt14_Function_base13_Base_managerIZN7testing8internal14FunctionMockerIFiiEE10InvokeWithEOSt5tupleIJiEEEUlvE0_E15_M_init_functorERSt9_Any_dataOS9_St17integral_constantIbLb0EE
FNDA:0,_ZNSt14_Function_base13_Base_managerIZN7testing8internal14FunctionMockerIFiiEE10InvokeWithEOSt5tupleIJiEEEUlvE0_E15_M_init_functorERSt9_Any_dataOS9_St17integral_constantIbLb0EE
FN:251,_ZNSt14_Function_base13_Base_managerIN7testing10OnceActionIFiiiiEE18StdFunctionAdaptorINS4_23IgnoreIncomingArgumentsINS1_8internal12ReturnActionIiE4ImplIiEEEEEEE15_M_init_functorERSt9_Any_dataOSD_St17integral_constantIbLb0EE
FNDA:5,_ZNSt14_Function_base13_Base_managerIN7testing10OnceActionIFiiiiEE18StdFunctionAdaptorINS4_23IgnoreIncomingArgumentsINS1_8internal12ReturnActionIiE4ImplIiEEEEEEE15_M_init_functorERSt9_Any_dataOSD_St17integral_constantIbLb0EE
FN:255,_ZNSt14_Function_baseC2Ev
FNDA:65,_ZNSt14_Function_baseC2Ev
FN:257,_ZNSt14_Function_baseD2Ev
FNDA:65,_ZNSt14_Function_baseD2Ev
FN:263,_ZNKSt14_Function_base8_M_emptyEv
FNDA:46,_ZNKSt14_Function_base8_M_emptyEv
FN:283,_ZNSt17_Function_handlerIFiiEN7testing8internal16TypedExpectationIS0_E13ActionAdaptorEE9_M_invokeERKSt9_Any_dataOi
FNDA:4,_ZNSt17_Function_handlerIFiiEN7testing8internal16TypedExpectationIS0_E13ActionAdaptorEE9_M_invokeERKSt9_Any_dataOi
FN:283,_ZNSt17_Function_handlerIFiiiiEN7testing10OnceActionIS0_E18StdFunctionAdaptorINS3_23IgnoreIncomingArgumentsINS1_8internal12ReturnActionIiE4ImplIiEEEEEEE9_M_invokeERKSt9_Any_dataOiSH_SH_
FNDA:5,_ZNSt17_Function_handlerIFiiiiEN7testing10OnceActionIS0_E18StdFunctionAdaptorINS3_23IgnoreIncomingArgumentsINS1_8internal12ReturnActionIiE4ImplIiEEEEEEE9_M_invokeERKSt9_Any_dataOiSH_SH_
FN:283,_ZNSt17_Function_handlerIFiiiiEN7testing8internal16TypedExpectationIS0_E13ActionAdaptorEE9_M_invokeERKSt9_Any_dataOiSA_SA_
FNDA:5,_ZNSt17_Function_handlerIFiiiiEN7testing8internal16TypedExpectationIS0_E13ActionAdaptorEE9_M_invokeERKSt9_Any_dataOiSA_SA_
FN:283,_ZNSt17_Function_handlerIFiiEN7testing10OnceActionIS0_E18StdFunctionAdaptorINS3_23IgnoreIncomingArgumentsINS1_8internal12ReturnActionIiE4ImplIiEEEEEEE9_M_invokeERKSt9_Any_dataOi
FNDA:4,_ZNSt17_Function_handlerIFiiEN7testing10OnceActionIS0_E18StdFunctionAdaptorINS3_23IgnoreIncomingArgumentsINS1_8internal12ReturnActionIiE4ImplIiEEEEEEE9_M_invokeERKSt9_Any_dataOi
FN:298,_ZNSt17_Function_handlerIFvvEZN7testing8internal14FunctionMockerIFiiEE10InvokeWithEOSt5tupleIJiEEEUlvE0_E9_M_invokeERKSt9_Any_data
FNDA:0,_ZNSt17_Function_handlerIFvvEZN7testing8internal14FunctionMockerIFiiEE10InvokeWithEOSt5tupleIJiEEEUlvE0_E9_M_invokeERKSt9_Any_data
FN:298,_ZNSt17_Function_handlerIFvvEZN7testing8internal14FunctionMockerIFiiiiEE10InvokeWithEOSt5tupleIJiiiEEEUlvE_E9_M_invokeERKSt9_Any_data
FNDA:0,_ZNSt17_Function_handlerIFvvEZN7testing8internal14FunctionMockerIFiiiiEE10InvokeWithEOSt5tupleIJiiiEEEUlvE_E9_M_invokeERKSt9_Any_data
FN:298,_ZNSt17_Function_handlerIFvvEZN7testing8internal14FunctionMockerIFiiiiEE10InvokeWithEOSt5tupleIJiiiEEEUlvE0_E9_M_invokeERKSt9_Any_data
FNDA:0,_ZNSt17_Function_handlerIFvvEZN7testing8internal14FunctionMockerIFiiiiEE10InvokeWithEOSt5tupleIJiiiEEEUlvE0_E9_M_invokeERKSt9_Any_data
FN:298,_ZNSt17_Function_handlerIFvvEZN7testing8internal14FunctionMockerIFiiEE10InvokeWithEOSt5tupleIJiEEEUlvE_E9_M_invokeERKSt9_Any_data
FNDA:1,_ZNSt17_Function_handlerIFvvEZN7testing8internal14FunctionMockerIFiiEE10InvokeWithEOSt5tupleIJiEEEUlvE_E9_M_invokeERKSt9_Any_data
FN:396,_ZNSt8functionIFiiEEC2Ev
FNDA:8,_ZNSt8functionIFiiEEC2Ev
FN:396,_ZNSt8functionIFiiiiEEC2Ev
FNDA:10,_ZNSt8functionIFiiiiEEC2Ev
FN:423,_ZNSt8functionIFiiEEC2EOS1_
FNDA:8,_ZNSt8functionIFiiEEC2EOS1_
FN:423,_ZNSt8functionIFiiiiEEC2EOS1_
FNDA:10,_ZNSt8functionIFiiiiEEC2EOS1_
FN:423,_ZNSt8functionIFvvEEC2EOS1_
FNDA:1,_ZNSt8functionIFvvEEC2EOS1_
FN:523,_ZNSt8functionIFiiiiEEaSIN7testing8internal16TypedExpectationIS0_E13ActionAdaptorEEENSt9enable_ifIXsrNS1_9_CallableINSt5decayIT_E4typeESt15__invoke_resultIRSD_JiiiEEEE5valueERS1_E4typeEOSB_
FNDA:5,_ZNSt8functionIFiiiiEEaSIN7testing8internal16TypedExpectationIS0_E13ActionAdaptorEEENSt9enable_ifIXsrNS1_9_CallableINSt5decayIT_E4typeESt15__invoke_resultIRSD_JiiiEEEE5valueERS1_E4typeEOSB_
FN:523,_ZNSt8functionIFiiEEaSIN7testing8internal16TypedExpectationIS0_E13ActionAdaptorEEENSt9enable_ifIXsrNS1_9_CallableINSt5decayIT_E4typeESt15__invoke_resultIRSD_JiEEEE5valueERS1_E4typeEOSB_
FNDA:4,_ZNSt8functionIFiiEEaSIN7testing8internal16TypedExpectationIS0_E13ActionAdaptorEEENSt9enable_ifIXsrNS1_9_CallableINSt5decayIT_E4typeESt15__invoke_resultIRSD_JiEEEE5valueERS1_E4typeEOSB_
FN:547,_ZNSt8functionIFiiiiEE4swapERS1_
FNDA:15,_ZNSt8functionIFiiiiEE4swapERS1_
FN:547,_ZNSt8functionIFiiEE4swapERS1_
FNDA:12,_ZNSt8functionIFiiEE4swapERS1_
FN:547,_ZNSt8functionIFvvEE4swapERS1_
FNDA:1,_ZNSt8functionIFvvEE4swapERS1_
FN:564,_ZNKSt8functionIFiiEEcvbEv
FNDA:12,_ZNKSt8functionIFiiEEcvbEv
FN:564,_ZNKSt8functionIFiiiiEEcvbEv
FNDA:15,_ZNKSt8functionIFiiiiEEcvbEv
FN:653,_ZNSt8functionIFiiEEC2ERKS1_
FNDA:4,_ZNSt8functionIFiiEEC2ERKS1_
FN:653,_ZNSt8functionIFiiiiEEC2ERKS1_
FNDA:5,_ZNSt8functionIFiiiiEEC2ERKS1_
FN:667,_ZNSt8functionIFiiiiEEC2IN7testing10OnceActionIS0_E18StdFunctionAdaptorINS5_23IgnoreIncomingArgumentsINS3_8internal12ReturnActionIiE4ImplIiEEEEEEvvEET_
FNDA:5,_ZNSt8functionIFiiiiEEC2IN7testing10OnceActionIS0_E18StdFunctionAdaptorINS5_23IgnoreIncomingArgumentsINS3_8internal12ReturnActionIiE4ImplIiEEEEEEvvEET_
FN:667,_ZNSt8functionIFiiiiEEC2IN7testing8internal16TypedExpectationIS0_E13ActionAdaptorEvvEET_
FNDA:5,_ZNSt8functionIFiiiiEEC2IN7testing8internal16TypedExpectationIS0_E13ActionAdaptorEvvEET_
FN:667,_ZNSt8functionIFiiEEC2IN7testing8internal16TypedExpectationIS0_E13ActionAdaptorEvvEET_
FNDA:4,_ZNSt8functionIFiiEEC2IN7testing8internal16TypedExpectationIS0_E13ActionAdaptorEvvEET_
FN:667,_ZNSt8functionIFvvEEC2IZN7testing8internal14FunctionMockerIFiiiiEE10InvokeWithEOSt5tupleIJiiiEEEUlvE_vvEET_
FNDA:0,_ZNSt8functionIFvvEEC2IZN7testing8internal14FunctionMockerIFiiiiEE10InvokeWithEOSt5tupleIJiiiEEEUlvE_vvEET_
FN:667,_ZNSt8functionIFvvEEC2IZN7testing8internal14FunctionMockerIFiiiiEE10InvokeWithEOSt5tupleIJiiiEEEUlvE0_vvEET_
FNDA:0,_ZNSt8functionIFvvEEC2IZN7testing8internal14FunctionMockerIFiiiiEE10InvokeWithEOSt5tupleIJiiiEEEUlvE0_vvEET_
FN:667,_ZNSt8functionIFvvEEC2IZN7testing8internal14FunctionMockerIFiiEE10InvokeWithEOSt5tupleIJiEEEUlvE_vvEET_
FNDA:1,_ZNSt8functionIFvvEEC2IZN7testing8internal14FunctionMockerIFiiEE10InvokeWithEOSt5tupleIJiEEEUlvE_vvEET_
FN:667,_ZNSt8functionIFvvEEC2IZN7testing8internal14FunctionMockerIFiiEE10InvokeWithEOSt5tupleIJiEEEUlvE0_vvEET_
FNDA:0,_ZNSt8functionIFvvEEC2IZN7testing8internal14FunctionMockerIFiiEE10InvokeWithEOSt5tupleIJiEEEUlvE0_vvEET_
FN:667,_ZNSt8functionIFiiEEC2IN7testing10OnceActionIS0_E18StdFunctionAdaptorINS5_23IgnoreIncomingArgumentsINS3_8internal12ReturnActionIiE4ImplIiEEEEEEvvEET_
FNDA:4,_ZNSt8functionIFiiEEC2IN7testing10OnceActionIS0_E18StdFunctionAdaptorINS5_23IgnoreIncomingArgumentsINS3_8internal12ReturnActionIiE4ImplIiEEEEEEvvEET_
FN:683,_ZNKSt8functionIFvvEEclEv
FNDA:1,_ZNKSt8functionIFvvEEclEv
FN:683,_ZNKSt8functionIFiiiiEEclEiii
FNDA:10,_ZNKSt8functionIFiiiiEEclEiii
FN:683,_ZNKSt8functionIFiiEEclEi
FNDA:8,_ZNKSt8functionIFiiEEclEi
FN:746,_ZSteqIiJiEEbRKSt8functionIFT_DpT0_EEDn
FNDA:8,_ZSteqIiJiEEbRKSt8functionIFT_DpT0_EEDn
FN:746,_ZSteqIiJiiiEEbRKSt8functionIFT_DpT0_EEDn
FNDA:10,_ZSteqIiJiiiEEbRKSt8functionIFT_DpT0_EEDn
DA:87,56
DA:88,28
DA:92,16
DA:93,16
DA:92,20
DA:93,20
DA:92,8
DA:93,8
DA:92,10
DA:93,10
DA:92,1
DA:93,1
DA:92,0
DA:93,0
DA:92,0
DA:93,0
DA:92,0
DA:93,0
DA:92,0
DA:93,0
DA:92,0
DA:93,0
DA:92,0
DA:93,0
DA:97,4
DA:98,4
DA:97,4
DA:98,4
DA:97,5
DA:98,5
DA:97,5
DA:98,5
DA:97,0
DA:98,0
DA:97,4
DA:98,4
DA:97,0
DA:98,0
DA:97,5
DA:98,5
DA:97,0
DA:98,0
DA:97,0
DA:98,0
DA:97,1
DA:98,1
DA:97,0
DA:98,0
DA:97,0
DA:98,0
DA:97,0
DA:98,0
DA:151,4
DA:159,4
DA:151,5
DA:159,5
DA:151,4
DA:159,4
DA:151,5
DA:159,5
DA:151,0
DA:159,0
DA:151,1
DA:155,1
DA:156,1
DA:151,0
DA:159,0
DA:151,0
DA:155,0
DA:156,0
DA:165,0
DA:167,0
DA:168,0
DA:165,0
DA:167,0
DA:168,0
DA:173,4
DA:175,4
DA:176,4
DA:177,4
DA:173,5
DA:175,5
DA:176,5
DA:177,5
DA:173,0
DA:175,0
DA:176,0
DA:177,0
DA:173,0
DA:175,0
DA:176,0
DA:177,0
DA:173,0
DA:175,0
DA:176,0
DA:177,0
DA:173,0
DA:175,0
DA:176,0
DA:177,0
DA:182,1
DA:184,1
DA:185,1
DA:182,0
DA:184,0
DA:185,0
DA:189,8
DA:191,8
DA:192,8
DA:189,10
DA:191,10
DA:192,10
DA:189,4
DA:191,4
DA:192,4
DA:189,5
DA:191,5
DA:192,5
DA:189,0
DA:191,0
DA:192,0
DA:189,0
DA:191,0
DA:192,0
DA:196,12
DA:199,12
DA:202,0
DA:203,0
DA:204,0
DA:206,0
DA:207,0
DA:208,0
DA:210,4
DA:211,4
DA:212,4
DA:214,8
DA:215,8
DA:216,8
DA:218,12
DA:196,15
DA:199,15
DA:202,0
DA:203,0
DA:204,0
DA:206,0
DA:207,0
DA:208,0
DA:210,5
DA:211,5
DA:212,5
DA:214,10
DA:215,10
DA:216,10
DA:218,15
DA:196,4
DA:199,4
DA:202,0
DA:203,0
DA:204,0
DA:206,0
DA:207,0
DA:208,0
DA:210,0
DA:211,0
DA:212,0
DA:214,4
DA:215,4
DA:216,4
DA:218,4
DA:196,5
DA:199,5
DA:202,0
DA:203,0
DA:204,0
DA:206,0
DA:207,0
DA:208,0
DA:210,0
DA:211,0
DA:212,0
DA:214,5
DA:215,5
DA:216,5
DA:218,5
DA:196,0
DA:199,0
DA:202,0
DA:203,0
DA:204,0
DA:206,0
DA:207,0
DA:208,0
DA:210,0
DA:211,0
DA:212,0
DA:214,0
DA:215,0
DA:216,0
DA:218,0
DA:196,1
DA:199,1
DA:202,0
DA:203,0
DA:204,0
DA:206,0
DA:207,0
DA:208,0
DA:210,0
DA:211,0
DA:212,0
DA:214,1
DA:215,1
DA:216,1
DA:218,1
DA:196,0
DA:199,0
DA:202,0
DA:203,0
DA:204,0
DA:206,0
DA:207,0
DA:208,0
DA:210,0
DA:211,0
DA:212,0
DA:214,0
DA:215,0
DA:216,0
DA:218,0
DA:196,0
DA:199,0
DA:202,0
DA:203,0
DA:204,0
DA:206,0
DA:207,0
DA:208,0
DA:210,0
DA:211,0
DA:212,0
DA:214,0
DA:215,0
DA:216,0
DA:218,0
DA:222,4
DA:223,4
DA:222,5
DA:223,5
DA:222,4
DA:223,4
DA:222,5
DA:223,5
DA:222,0
DA:223,0
DA:222,1
DA:223,1
DA:222,0
DA:223,0
DA:222,0
DA:223,0
DA:242,4
DA:243,4
DA:242,5
DA:243,5
DA:242,4
DA:243,4
DA:242,5
DA:243,5
DA:242,0
DA:243,0
DA:242,1
DA:243,1
DA:242,0
DA:243,0
DA:242,0
DA:243,0
DA:247,1
DA:248,1
DA:247,0
DA:248,0
DA:251,4
DA:252,4
DA:251,5
DA:252,5
DA:251,4
DA:252,4
DA:251,5
DA:252,5
DA:251,0
DA:252,0
DA:251,0
DA:252,0
DA:255,65
DA:257,65
DA:258,65
DA:259,65
DA:260,28
DA:261,65
DA:263,46
DA:283,4
DA:285,4
DA:286,4
DA:283,5
DA:285,5
DA:286,5
DA:283,4
DA:285,4
DA:286,4
DA:283,5
DA:285,5
DA:286,5
DA:298,0
DA:300,0
DA:302,0
DA:298,1
DA:300,1
DA:302,1
DA:298,0
DA:300,0
DA:302,0
DA:298,0
DA:300,0
DA:302,0
DA:396,8
DA:397,8
DA:396,10
DA:397,10
DA:423,8
DA:425,8
DA:426,8
DA:423,10
DA:425,10
DA:426,10
DA:423,1
DA:425,1
DA:426,1
DA:523,4
DA:525,4
DA:526,4
DA:523,5
DA:525,5
DA:526,5
DA:547,12
DA:549,12
DA:550,12
DA:551,12
DA:552,12
DA:547,15
DA:549,15
DA:550,15
DA:551,15
DA:552,15
DA:547,1
DA:549,1
DA:550,1
DA:551,1
DA:552,1
DA:564,12
DA:565,12
DA:564,15
DA:565,15
DA:653,4
DA:655,4
DA:657,4
DA:659,4
DA:660,4
DA:661,4
DA:663,4
DA:653,5
DA:655,5
DA:657,5
DA:659,5
DA:660,5
DA:661,5
DA:663,5
DA:667,4
DA:669,4
DA:673,4
DA:675,4
DA:676,4
DA:677,4
DA:679,4
DA:667,5
DA:669,5
DA:673,5
DA:675,5
DA:676,5
DA:677,5
DA:679,5
DA:667,4
DA:669,4
DA:673,4
DA:675,4
DA:676,4
DA:677,4
DA:679,4
DA:667,5
DA:669,5
DA:673,5
DA:675,5
DA:676,5
DA:677,5
DA:679,5
DA:667,0
DA:669,0
DA:673,0
DA:675,0
DA:676,0
DA:677,0
DA:679,0
DA:667,1
DA:669,1
DA:673,1
DA:675,1
DA:676,1
DA:677,1
DA:679,1
DA:667,0
DA:669,0
DA:673,0
DA:675,0
DA:676,0
DA:677,0
DA:679,0
DA:667,0
DA:669,0
DA:673,0
DA:675,0
DA:676,0
DA:677,0
DA:679,0
DA:683,8
DA:686,8
DA:687,0
DA:688,8
DA:683,10
DA:686,10
DA:687,0
DA:688,10
DA:683,1
DA:686,1
DA:687,0
DA:688,1
DA:746,8
DA:747,8
DA:746,10
DA:747,10
end_of_record
SF:/mnt/c/Users/user/Desktop/TTECH/my_project/build/_deps/googletest-src/googletest/include/gtest/gtest-message.h
end_of_record
SF:/mnt/c/Users/user/Desktop/TTECH/my_project/build/_deps/googletest-src/googletest/include/gtest/gtest.h
FN:255,_ZN7testing4Test14SetUpTestSuiteEv
FNDA:0,_ZN7testing4Test14SetUpTestSuiteEv
FN:263,_ZN7testing4Test17TearDownTestSuiteEv
FNDA:0,_ZN7testing4Test17TearDownTestSuiteEv
FN:268,_ZN7testing4Test16TearDownTestCaseEv
FNDA:0,_ZN7testing4Test16TearDownTestCaseEv
FN:269,_ZN7testing4Test13SetUpTestCaseEv
FNDA:0,_ZN7testing4Test13SetUpTestCaseEv
FN:350,_ZN7testing4Test5SetupEv
FNDA:0,_ZN7testing4Test5SetupEv
FN:1349,_ZN7testing8internal18CmpHelperEQFailureIiiEENS_15AssertionResultEPKcS4_RKT_RKT0_
FNDA:0,_ZN7testing8internal18CmpHelperEQFailureIiiEENS_15AssertionResultEPKcS4_RKT_RKT0_
FN:1366,_ZN7testing8internal11CmpHelperEQIiiEENS_15AssertionResultEPKcS4_RKT_RKT0_
FNDA:5,_ZN7testing8internal11CmpHelperEQIiiEENS_15AssertionResultEPKcS4_RKT_RKT0_
FN:1385,_ZN7testing8internal8EqHelper7CompareIiiLPv0EEENS_15AssertionResultEPKcS6_RKT_RKT0_
FNDA:5,_ZN7testing8internal8EqHelper7CompareIiiLPv0EEENS_15AssertionResultEPKcS6_RKT_RKT0_
FN:2304,_Z13RUN_ALL_TESTSv
FNDA:6,_Z13RUN_ALL_TESTSv
DA:255,0
DA:263,0
DA:268,0
DA:269,0
DA:350,0
DA:1349,0
DA:1354,0
DA:1366,5
DA:1369,5
DA:1370,5
DA:1373,0
DA:1385,5
DA:1388,5
DA:2304,6
end_of_record
SF:/mnt/c/Users/user/Desktop/TTECH/my_project/build/_deps/googletest-src/googletest/include/gtest/gtest-printers.h
FN:213,_ZN7testing8internal52internal_stream_operator_without_lexical_name_lookup13StreamPrinter10PrintValueIivRSoEEvRKT_PSo
FNDA:2,_ZN7testing8internal52internal_stream_operator_without_lexical_name_lookup13StreamPrinter10PrintValueIivRSoEEvRKT_PSo
FN:305,_ZN7testing8internal17PrintWithFallbackIiEEvRKT_PSo
FNDA:2,_ZN7testing8internal17PrintWithFallbackIiEEvRKT_PSo
FN:332,_ZN7testing8internal19FormatForComparisonIiiE6FormatB5cxx11ERKi
FNDA:0,_ZN7testing8internal19FormatForComparisonIiiE6FormatB5cxx11ERKi
FN:412,_ZN7testing8internal33FormatForComparisonFailureMessageIiiEENSt7__cxx1112basic_stringIcSt11char_traitsIcESaIcEEERKT_RKT0_
FNDA:0,_ZN7testing8internal33FormatForComparisonFailureMessageIiiEENSt7__cxx1112basic_stringIcSt11char_traitsIcESaIcEEERKT_RKT0_
FN:439,_ZN7testing8internal7PrintToIiEEvRKT_PSo
FNDA:2,_ZN7testing8internal7PrintToIiEEvRKT_PSo
FN:646,_ZN7testing8internal12PrintTupleToISt5tupleIJiiiEEEEvRKT_St17integral_constantImLm0EEPSo
FNDA:0,_ZN7testing8internal12PrintTupleToISt5tupleIJiiiEEEEvRKT_St17integral_constantImLm0EEPSo
FN:646,_ZN7testing8internal12PrintTupleToISt5tupleIJiEEEEvRKT_St17integral_constantImLm0EEPSo
FNDA:1,_ZN7testing8internal12PrintTupleToISt5tupleIJiEEEEvRKT_St17integral_constantImLm0EEPSo
FN:650,_ZN7testing8internal12PrintTupleToISt5tupleIJiiiEELm3EEEvRKT_St17integral_constantImXT0_EEPSo
FNDA:0,_ZN7testing8internal12PrintTupleToISt5tupleIJiiiEELm3EEEvRKT_St17integral_constantImXT0_EEPSo
FN:650,_ZN7testing8internal12PrintTupleToISt5tupleIJiEELm1EEEvRKT_St17integral_constantImXT0_EEPSo
FNDA:1,_ZN7testing8internal12PrintTupleToISt5tupleIJiEELm1EEEvRKT_St17integral_constantImXT0_EEPSo
FN:650,_ZN7testing8internal12PrintTupleToISt5tupleIJiiiEELm2EEEvRKT_St17integral_constantImXT0_EEPSo
FNDA:0,_ZN7testing8internal12PrintTupleToISt5tupleIJiiiEELm2EEEvRKT_St17integral_constantImXT0_EEPSo
FN:650,_ZN7testing8internal12PrintTupleToISt5tupleIJiiiEELm1EEEvRKT_St17integral_constantImXT0_EEPSo
FNDA:0,_ZN7testing8internal12PrintTupleToISt5tupleIJiiiEELm1EEEvRKT_St17integral_constantImXT0_EEPSo
FN:663,_ZN7testing8internal7PrintToIJiEEEvRKSt5tupleIJDpT_EEPSo
FNDA:1,_ZN7testing8internal7PrintToIJiEEEvRKSt5tupleIJDpT_EEPSo
FN:663,_ZN7testing8internal7PrintToIJiiiEEEvRKSt5tupleIJDpT_EEPSo
FNDA:0,_ZN7testing8internal7PrintToIJiiiEEEvRKSt5tupleIJDpT_EEPSo
FN:693,_ZN7testing8internal16UniversalPrinterISt5tupleIJiEEE5PrintERKS3_PSo
FNDA:1,_ZN7testing8internal16UniversalPrinterISt5tupleIJiEEE5PrintERKS3_PSo
FN:693,_ZN7testing8internal16UniversalPrinterIiE5PrintERKiPSo
FNDA:2,_ZN7testing8internal16UniversalPrinterIiE5PrintERKiPSo
FN:693,_ZN7testing8internal16UniversalPrinterISt5tupleIJiiiEEE5PrintERKS3_PSo
FNDA:0,_ZN7testing8internal16UniversalPrinterISt5tupleIJiiiEEE5PrintERKS3_PSo
FN:883,_ZN7testing8internal21UniversalTersePrinterIiE5PrintERKiPSo
FNDA:0,_ZN7testing8internal21UniversalTersePrinterIiE5PrintERKiPSo
FN:1002,_ZN7testing8internal14UniversalPrintISt5tupleIJiiiEEEEvRKT_PSo
FNDA:0,_ZN7testing8internal14UniversalPrintISt5tupleIJiiiEEEEvRKT_PSo
FN:1002,_ZN7testing8internal14UniversalPrintISt5tupleIJiEEEEvRKT_PSo
FNDA:1,_ZN7testing8internal14UniversalPrintISt5tupleIJiEEEEvRKT_PSo
FN:1002,_ZN7testing8internal14UniversalPrintIiEEvRKT_PSo
FNDA:0,_ZN7testing8internal14UniversalPrintIiEEvRKT_PSo
FN:1042,_ZN7testing13PrintToStringIiEENSt7__cxx1112basic_stringIcSt11char_traitsIcESaIcEEERKT_
FNDA:0,_ZN7testing13PrintToStringIiEENSt7__cxx1112basic_stringIcSt11char_traitsIcESaIcEEERKT_
DA:213,2
DA:216,2
DA:217,2
DA:305,2
DA:311,2
DA:312,2
DA:332,0
DA:333,0
DA:412,0
DA:414,0
DA:439,2
DA:440,2
DA:441,2
DA:646,0
DA:647,0
DA:646,1
DA:647,1
DA:650,0
DA:652,0
DA:658,0
DA:659,0
DA:660,0
DA:650,0
DA:652,0
DA:656,0
DA:658,0
DA:659,0
DA:660,0
DA:650,1
DA:652,1
DA:658,1
DA:659,1
DA:660,1
DA:650,0
DA:652,0
DA:656,0
DA:658,0
DA:659,0
DA:660,0
DA:663,1
DA:664,1
DA:665,1
DA:666,1
DA:667,1
DA:663,0
DA:664,0
DA:665,0
DA:666,0
DA:667,0
DA:693,1
DA:702,1
DA:703,1
DA:693,2
DA:702,2
DA:703,2
DA:693,0
DA:702,0
DA:703,0
DA:883,0
DA:884,0
DA:885,0
DA:1002,0
DA:1006,0
DA:1007,0
DA:1002,1
DA:1006,1
DA:1007,1
DA:1002,0
DA:1006,0
DA:1007,0
DA:1042,0
DA:1043,0
DA:1044,0
DA:1045,0
end_of_record
SF:/usr/include/c++/9/tuple
FN:113,_ZNSt10_Head_baseILm1ESt14default_deleteINSt7__cxx1112basic_stringIcSt11char_traitsIcESaIcEEEELb1EE7_M_headERS8_
FNDA:0,_ZNSt10_Head_baseILm1ESt14default_deleteINSt7__cxx1112basic_stringIcSt11char_traitsIcESaIcEEEELb1EE7_M_headERS8_
FN:113,_ZNSt10_Head_baseILm1ESt14default_deleteINSt7__cxx1118basic_stringstreamIcSt11char_traitsIcESaIcEEEELb1EE7_M_headERS8_
FNDA:339,_ZNSt10_Head_baseILm1ESt14default_deleteINSt7__cxx1118basic_stringstreamIcSt11char_traitsIcESaIcEEEELb1EE7_M_headERS8_
FN:128,_ZNSt10_Head_baseILm0EN7testing7MatcherIiEELb0EEC2ERKS3_
FNDA:18,_ZNSt10_Head_baseILm0EN7testing7MatcherIiEELb0EEC2ERKS3_
FN:128,_ZNSt10_Head_baseILm1EN7testing7MatcherIiEELb0EEC2ERKS3_
FNDA:10,_ZNSt10_Head_baseILm1EN7testing7MatcherIiEELb0EEC2ERKS3_
FN:128,_ZNSt10_Head_baseILm2EN7testing7MatcherIiEELb0EEC2ERKS3_
FNDA:10,_ZNSt10_Head_baseILm2EN7testing7MatcherIiEELb0EEC2ERKS3_
FN:132,_ZNSt10_Head_baseILm0EN7testing7MatcherIiEELb0EEC2IS2_EEOT_
FNDA:9,_ZNSt10_Head_baseILm0EN7testing7MatcherIiEELb0EEC2IS2_EEOT_
FN:132,_ZNSt10_Head_baseILm1EiLb0EEC2IiEEOT_
FNDA:10,_ZNSt10_Head_baseILm1EiLb0EEC2IiEEOT_
FN:132,_ZNSt10_Head_baseILm1EPKN7testing8internal9EqMatcherIiEELb0EEC2IS5_EEOT_
FNDA:0,_ZNSt10_Head_baseILm1EPKN7testing8internal9EqMatcherIiEELb0EEC2IS5_EEOT_
FN:132,_ZNSt10_Head_baseILm0EPKN7testing8internal11MatcherBaseIiEELb0EEC2IS5_EEOT_
FNDA:0,_ZNSt10_Head_baseILm0EPKN7testing8internal11MatcherBaseIiEELb0EEC2IS5_EEOT_
FN:132,_ZNSt10_Head_baseILm1EN7testing7MatcherIiEELb0EEC2IS2_EEOT_
FNDA:5,_ZNSt10_Head_baseILm1EN7testing7MatcherIiEELb0EEC2IS2_EEOT_
FN:132,_ZNSt10_Head_baseILm2EiLb0EEC2IiEEOT_
FNDA:10,_ZNSt10_Head_baseILm2EiLb0EEC2IiEEOT_
FN:132,_ZNSt10_Head_baseILm0EPKN7testing8internal11MatcherBaseIRKSt5tupleIJiiiEEEELb0EEC2IS9_EEOT_
FNDA:0,_ZNSt10_Head_baseILm0EPKN7testing8internal11MatcherBaseIRKSt5tupleIJiiiEEEELb0EEC2IS9_EEOT_
FN:132,_ZNSt10_Head_baseILm2EN7testing7MatcherIiEELb0EEC2IS2_EEOT_
FNDA:5,_ZNSt10_Head_baseILm2EN7testing7MatcherIiEELb0EEC2IS2_EEOT_
FN:132,_ZNSt10_Head_baseILm0EiLb0EEC2IiEEOT_
FNDA:19,_ZNSt10_Head_baseILm0EiLb0EEC2IiEEOT_
FN:132,_ZNSt10_Head_baseILm0EPKN7testing8internal11MatcherBaseIRKSt5tupleIJiEEEELb0EEC2IS9_EEOT_
FNDA:0,_ZNSt10_Head_baseILm0EPKN7testing8internal11MatcherBaseIRKSt5tupleIJiEEEELb0EEC2IS9_EEOT_
FN:132,_ZNSt10_Head_baseILm1EPKN7testing8internal15AnythingMatcherELb0EEC2IS4_EEOT_
FNDA:0,_ZNSt10_Head_baseILm1EPKN7testing8internal15AnythingMatcherELb0EEC2IS4_EEOT_
FN:160,_ZNSt10_Head_baseILm0EPNSt7__cxx1118basic_stringstreamIcSt11char_traitsIcESaIcEEELb0EE7_M_headERS7_
FNDA:678,_ZNSt10_Head_baseILm0EPNSt7__cxx1118basic_stringstreamIcSt11char_traitsIcESaIcEEELb0EE7_M_headERS7_
FN:160,_ZNSt10_Head_baseILm0EPKN7testing8internal11MatcherBaseIiEELb0EE7_M_headERS6_
FNDA:0,_ZNSt10_Head_baseILm0EPKN7testing8internal11MatcherBaseIiEELb0EE7_M_headERS6_
FN:160,_ZNSt10_Head_baseILm0EPKN7testing8internal11MatcherBaseIRKSt5tupleIJiiiEEEELb0EE7_M_headERSA_
FNDA:0,_ZNSt10_Head_baseILm0EPKN7testing8internal11MatcherBaseIRKSt5tupleIJiiiEEEELb0EE7_M_headERSA_
FN:160,_ZNSt10_Head_baseILm0EPNSt7__cxx1112basic_stringIcSt11char_traitsIcESaIcEEELb0EE7_M_headERS7_
FNDA:5,_ZNSt10_Head_baseILm0EPNSt7__cxx1112basic_stringIcSt11char_traitsIcESaIcEEELb0EE7_M_headERS7_
FN:160,_ZNSt10_Head_baseILm0EiLb0EE7_M_headERS0_
FNDA:18,_ZNSt10_Head_baseILm0EiLb0EE7_M_headERS0_
FN:160,_ZNSt10_Head_baseILm2EiLb0EE7_M_headERS0_
FNDA:10,_ZNSt10_Head_baseILm2EiLb0EE7_M_headERS0_
FN:160,_ZNSt10_Head_baseILm0EPKN7testing8internal11MatcherBaseIRKSt5tupleIJiEEEELb0EE7_M_headERSA_
FNDA:0,_ZNSt10_Head_baseILm0EPKN7testing8internal11MatcherBaseIRKSt5tupleIJiEEEELb0EE7_M_headERSA_
FN:160,_ZNSt10_Head_baseILm1EiLb0EE7_M_headERS0_
FNDA:10,_ZNSt10_Head_baseILm1EiLb0EE7_M_headERS0_
FN:163,_ZNSt10_Head_baseILm0EPNSt7__cxx1112basic_stringIcSt11char_traitsIcESaIcEEELb0EE7_M_headERKS7_
FNDA:0,_ZNSt10_Head_baseILm0EPNSt7__cxx1112basic_stringIcSt11char_traitsIcESaIcEEELb0EE7_M_headERKS7_
FN:163,_ZNSt10_Head_baseILm2EiLb0EE7_M_headERKS0_
FNDA:5,_ZNSt10_Head_baseILm2EiLb0EE7_M_headERKS0_
FN:163,_ZNSt10_Head_baseILm0EN7testing7MatcherIiEELb0EE7_M_headERKS3_
FNDA:9,_ZNSt10_Head_baseILm0EN7testing7MatcherIiEELb0EE7_M_headERKS3_
FN:163,_ZNSt10_Head_baseILm0EiLb0EE7_M_headERKS0_
FNDA:10,_ZNSt10_Head_baseILm0EiLb0EE7_M_headERKS0_
FN:163,_ZNSt10_Head_baseILm2EN7testing7MatcherIiEELb0EE7_M_headERKS3_
FNDA:5,_ZNSt10_Head_baseILm2EN7testing7MatcherIiEELb0EE7_M_headERKS3_
FN:163,_ZNSt10_Head_baseILm0EPN7testing8internal11ThreadLocalIPNS0_8SequenceEE18ValueHolderFactoryELb0EE7_M_headERKS8_
FNDA:5,_ZNSt10_Head_baseILm0EPN7testing8internal11ThreadLocalIPNS0_8SequenceEE18ValueHolderFactoryELb0EE7_M_headERKS8_
FN:163,_ZNSt10_Head_baseILm1EN7testing7MatcherIiEELb0EE7_M_headERKS3_
FNDA:5,_ZNSt10_Head_baseILm1EN7testing7MatcherIiEELb0EE7_M_headERKS3_
FN:163,_ZNSt10_Head_baseILm1EiLb0EE7_M_headERKS0_
FNDA:5,_ZNSt10_Head_baseILm1EiLb0EE7_M_headERKS0_
FN:195,_ZNSt11_Tuple_implILm0EJPKN7testing8internal11MatcherBaseIiEEPKNS1_9EqMatcherIiEEEE7_M_headERSA_
FNDA:0,_ZNSt11_Tuple_implILm0EJPKN7testing8internal11MatcherBaseIiEEPKNS1_9EqMatcherIiEEEE7_M_headERSA_
FN:195,_ZNSt11_Tuple_implILm0EJPNSt7__cxx1118basic_stringstreamIcSt11char_traitsIcESaIcEEESt14default_deleteIS5_EEE7_M_headERS9_
FNDA:678,_ZNSt11_Tuple_implILm0EJPNSt7__cxx1118basic_stringstreamIcSt11char_traitsIcESaIcEEESt14default_deleteIS5_EEE7_M_headERS9_
FN:195,_ZNSt11_Tuple_implILm0EJPNSt7__cxx1112basic_stringIcSt11char_traitsIcESaIcEEESt14default_deleteIS5_EEE7_M_headERS9_
FNDA:5,_ZNSt11_Tuple_implILm0EJPNSt7__cxx1112basic_stringIcSt11char_traitsIcESaIcEEESt14default_deleteIS5_EEE7_M_headERS9_
FN:195,_ZNSt11_Tuple_implILm0EJiiiEE7_M_headERS0_
FNDA:10,_ZNSt11_Tuple_implILm0EJiiiEE7_M_headERS0_
FN:195,_ZNSt11_Tuple_implILm1EJiiEE7_M_headERS0_
FNDA:10,_ZNSt11_Tuple_implILm1EJiiEE7_M_headERS0_
FN:195,_ZNSt11_Tuple_implILm0EJPKN7testing8internal11MatcherBaseIiEEPKNS1_15AnythingMatcherEEE7_M_headERS9_
FNDA:0,_ZNSt11_Tuple_implILm0EJPKN7testing8internal11MatcherBaseIiEEPKNS1_15AnythingMatcherEEE7_M_headERS9_
FN:195,_ZNSt11_Tuple_implILm0EJPKN7testing8internal11MatcherBaseIRKSt5tupleIJiEEEEPKNS1_15AnythingMatcherEEE7_M_headERSD_
FNDA:0,_ZNSt11_Tuple_implILm0EJPKN7testing8internal11MatcherBaseIRKSt5tupleIJiEEEEPKNS1_15AnythingMatcherEEE7_M_headERSD_
FN:195,_ZNSt11_Tuple_implILm0EJPKN7testing8internal11MatcherBaseIRKSt5tupleIJiiiEEEEPKNS1_15AnythingMatcherEEE7_M_headERSD_
FNDA:0,_ZNSt11_Tuple_implILm0EJPKN7testing8internal11MatcherBaseIRKSt5tupleIJiiiEEEEPKNS1_15AnythingMatcherEEE7_M_headERSD_
FN:198,_ZNSt11_Tuple_implILm1EJN7testing7MatcherIiEES2_EE7_M_headERKS3_
FNDA:5,_ZNSt11_Tuple_implILm1EJN7testing7MatcherIiEES2_EE7_M_headERKS3_
FN:198,_ZNSt11_Tuple_implILm0EJPN7testing8internal11ThreadLocalIPNS0_8SequenceEE18ValueHolderFactoryESt14default_deleteIS6_EEE7_M_headERKSA_
FNDA:5,_ZNSt11_Tuple_implILm0EJPN7testing8internal11ThreadLocalIPNS0_8SequenceEE18ValueHolderFactoryESt14default_deleteIS6_EEE7_M_headERKSA_
FN:198,_ZNSt11_Tuple_implILm1EJiiEE7_M_headERKS0_
FNDA:5,_ZNSt11_Tuple_implILm1EJiiEE7_M_headERKS0_
FN:198,_ZNSt11_Tuple_implILm0EJiiiEE7_M_headERKS0_
FNDA:5,_ZNSt11_Tuple_implILm0EJiiiEE7_M_headERKS0_
FN:198,_ZNSt11_Tuple_implILm0EJN7testing7MatcherIiEES2_S2_EE7_M_headERKS3_
FNDA:5,_ZNSt11_Tuple_implILm0EJN7testing7MatcherIiEES2_S2_EE7_M_headERKS3_
FN:198,_ZNSt11_Tuple_implILm0EJPNSt7__cxx1112basic_stringIcSt11char_traitsIcESaIcEEESt14default_deleteIS5_EEE7_M_headERKS9_
FNDA:0,_ZNSt11_Tuple_implILm0EJPNSt7__cxx1112basic_stringIcSt11char_traitsIcESaIcEEESt14default_deleteIS5_EEE7_M_headERKS9_
FN:201,_ZNSt11_Tuple_implILm0EJiiiEE7_M_tailERS0_
FNDA:5,_ZNSt11_Tuple_implILm0EJiiiEE7_M_tailERS0_
FN:201,_ZNSt11_Tuple_implILm1EJiiEE7_M_tailERS0_
FNDA:5,_ZNSt11_Tuple_implILm1EJiiEE7_M_tailERS0_
FN:216,_ZNSt11_Tuple_implILm1EJN7testing7MatcherIiEES2_EEC2IS2_JS2_EvEEOT_DpOT0_
FNDA:5,_ZNSt11_Tuple_implILm1EJN7testing7MatcherIiEES2_EEC2IS2_JS2_EvEEOT_DpOT0_
FN:216,_ZNSt11_Tuple_implILm0EJiiiEEC2IiJiiEvEEOT_DpOT0_
FNDA:5,_ZNSt11_Tuple_implILm0EJiiiEEC2IiJiiEvEEOT_DpOT0_
FN:216,_ZNSt11_Tuple_implILm0EJPKN7testing8internal11MatcherBaseIiEEPKNS1_15AnythingMatcherEEEC2IS5_JS8_EvEEOT_DpOT0_
FNDA:0,_ZNSt11_Tuple_implILm0EJPKN7testing8internal11MatcherBaseIiEEPKNS1_15AnythingMatcherEEEC2IS5_JS8_EvEEOT_DpOT0_
FN:216,_ZNSt11_Tuple_implILm0EJPKN7testing8internal11MatcherBaseIRKSt5tupleIJiiiEEEEPKNS1_15AnythingMatcherEEEC2IS9_JSC_EvEEOT_DpOT0_
FNDA:0,_ZNSt11_Tuple_implILm0EJPKN7testing8internal11MatcherBaseIRKSt5tupleIJiiiEEEEPKNS1_15AnythingMatcherEEEC2IS9_JSC_EvEEOT_DpOT0_
FN:216,_ZNSt11_Tuple_implILm0EJPKN7testing8internal11MatcherBaseIRKSt5tupleIJiEEEEPKNS1_15AnythingMatcherEEEC2IS9_JSC_EvEEOT_DpOT0_
FNDA:0,_ZNSt11_Tuple_implILm0EJPKN7testing8internal11MatcherBaseIRKSt5tupleIJiEEEEPKNS1_15AnythingMatcherEEEC2IS9_JSC_EvEEOT_DpOT0_
FN:216,_ZNSt11_Tuple_implILm0EJN7testing7MatcherIiEES2_S2_EEC2IS2_JS2_S2_EvEEOT_DpOT0_
FNDA:5,_ZNSt11_Tuple_implILm0EJN7testing7MatcherIiEES2_S2_EEC2IS2_JS2_S2_EvEEOT_DpOT0_
FN:216,_ZNSt11_Tuple_implILm0EJPKN7testing8internal11MatcherBaseIiEEPKNS1_9EqMatcherIiEEEEC2IS5_JS9_EvEEOT_DpOT0_
FNDA:0,_ZNSt11_Tuple_implILm0EJPKN7testing8internal11MatcherBaseIiEEPKNS1_9EqMatcherIiEEEEC2IS5_JS9_EvEEOT_DpOT0_
FN:216,_ZNSt11_Tuple_implILm1EJiiEEC2IiJiEvEEOT_DpOT0_
FNDA:5,_ZNSt11_Tuple_implILm1EJiiEEC2IiJiEvEEOT_DpOT0_
FN:220,_ZNSt11_Tuple_implILm1EJN7testing7MatcherIiEES2_EEC2ERKS3_
FNDA:10,_ZNSt11_Tuple_implILm1EJN7testing7MatcherIiEES2_EEC2ERKS3_
FN:220,_ZNSt11_Tuple_implILm0EJN7testing7MatcherIiEES2_S2_EEC2ERKS3_
FNDA:10,_ZNSt11_Tuple_implILm0EJN7testing7MatcherIiEES2_S2_EEC2ERKS3_
FN:227,_ZNSt11_Tuple_implILm1EJiiEEC2EOS0_
FNDA:5,_ZNSt11_Tuple_implILm1EJiiEEC2EOS0_
FN:227,_ZNSt11_Tuple_implILm0EJiiiEEC2EOS0_
FNDA:5,_ZNSt11_Tuple_implILm0EJiiiEEC2EOS0_
FN:334,_ZNSt11_Tuple_implILm1EJSt14default_deleteINSt7__cxx1112basic_stringIcSt11char_traitsIcESaIcEEEEEE7_M_headERS8_
FNDA:0,_ZNSt11_Tuple_implILm1EJSt14default_deleteINSt7__cxx1112basic_stringIcSt11char_traitsIcESaIcEEEEEE7_M_headERS8_
FN:334,_ZNSt11_Tuple_implILm1EJSt14default_deleteINSt7__cxx1118basic_stringstreamIcSt11char_traitsIcESaIcEEEEEE7_M_headERS8_
FNDA:339,_ZNSt11_Tuple_implILm1EJSt14default_deleteINSt7__cxx1118basic_stringstreamIcSt11char_traitsIcESaIcEEEEEE7_M_headERS8_
FN:334,_ZNSt11_Tuple_implILm2EJiEE7_M_headERS0_
FNDA:10,_ZNSt11_Tuple_implILm2EJiEE7_M_headERS0_
FN:334,_ZNSt11_Tuple_implILm0EJiEE7_M_headERS0_
FNDA:8,_ZNSt11_Tuple_implILm0EJiEE7_M_headERS0_
FN:337,_ZNSt11_Tuple_implILm0EJiEE7_M_headERKS0_
FNDA:5,_ZNSt11_Tuple_implILm0EJiEE7_M_headERKS0_
FN:337,_ZNSt11_Tuple_implILm2EJiEE7_M_headERKS0_
FNDA:5,_ZNSt11_Tuple_implILm2EJiEE7_M_headERKS0_
FN:337,_ZNSt11_Tuple_implILm0EJN7testing7MatcherIiEEEE7_M_headERKS3_
FNDA:4,_ZNSt11_Tuple_implILm0EJN7testing7MatcherIiEEEE7_M_headERKS3_
FN:337,_ZNSt11_Tuple_implILm2EJN7testing7MatcherIiEEEE7_M_headERKS3_
FNDA:5,_ZNSt11_Tuple_implILm2EJN7testing7MatcherIiEEEE7_M_headERKS3_
FN:348,_ZNSt11_Tuple_implILm1EJPKN7testing8internal15AnythingMatcherEEEC2IS4_EEOT_
FNDA:0,_ZNSt11_Tuple_implILm1EJPKN7testing8internal15AnythingMatcherEEEC2IS4_EEOT_
FN:348,_ZNSt11_Tuple_implILm0EJiEEC2IiEEOT_
FNDA:5,_ZNSt11_Tuple_implILm0EJiEEC2IiEEOT_
FN:348,_ZNSt11_Tuple_implILm2EJiEEC2IiEEOT_
FNDA:5,_ZNSt11_Tuple_implILm2EJiEEC2IiEEOT_
FN:348,_ZNSt11_Tuple_implILm2EJN7testing7MatcherIiEEEEC2IS2_EEOT_
FNDA:5,_ZNSt11_Tuple_implILm2EJN7testing7MatcherIiEEEEC2IS2_EEOT_
FN:348,_ZNSt11_Tuple_implILm1EJPKN7testing8internal9EqMatcherIiEEEEC2IS5_EEOT_
FNDA:0,_ZNSt11_Tuple_implILm1EJPKN7testing8internal9EqMatcherIiEEEEC2IS5_EEOT_
FN:348,_ZNSt11_Tuple_implILm0EJN7testing7MatcherIiEEEEC2IS2_EEOT_
FNDA:4,_ZNSt11_Tuple_implILm0EJN7testing7MatcherIiEEEEC2IS2_EEOT_
FN:351,_ZNSt11_Tuple_implILm2EJN7testing7MatcherIiEEEEC2ERKS3_
FNDA:10,_ZNSt11_Tuple_implILm2EJN7testing7MatcherIiEEEEC2ERKS3_
FN:351,_ZNSt11_Tuple_implILm0EJN7testing7MatcherIiEEEEC2ERKS3_
FNDA:8,_ZNSt11_Tuple_implILm0EJN7testing7MatcherIiEEEEC2ERKS3_
FN:358,_ZNSt11_Tuple_implILm2EJiEEC2EOS0_
FNDA:5,_ZNSt11_Tuple_implILm2EJiEEC2EOS0_
FN:358,_ZNSt11_Tuple_implILm0EJiEEC2EOS0_
FNDA:4,_ZNSt11_Tuple_implILm0EJiEEC2EOS0_
FN:626,_ZNSt5tupleIJN7testing7MatcherIiEES2_S2_EEC2IJS2_S2_S2_ELb1EEEDpOT_
FNDA:5,_ZNSt5tupleIJN7testing7MatcherIiEES2_S2_EEC2IJS2_S2_S2_ELb1EEEDpOT_
FN:626,_ZNSt5tupleIJN7testing7MatcherIiEEEEC2IJS2_ELb1EEEDpOT_
FNDA:4,_ZNSt5tupleIJN7testing7MatcherIiEEEEC2IJS2_ELb1EEEDpOT_
FN:626,_ZNSt5tupleIJiiiEEC2IJiiiELb1EEEDpOT_
FNDA:5,_ZNSt5tupleIJiiiEEC2IJiiiELb1EEEDpOT_
FN:626,_ZNSt5tupleIJiEEC2IJiELb1EEEDpOT_
FNDA:5,_ZNSt5tupleIJiEEC2IJiELb1EEEDpOT_
FN:640,_ZNSt5tupleIJN7testing7MatcherIiEES2_S2_EEC2ERKS3_
FNDA:10,_ZNSt5tupleIJN7testing7MatcherIiEES2_S2_EEC2ERKS3_
FN:640,_ZNSt5tupleIJN7testing7MatcherIiEEEEC2ERKS3_
FNDA:8,_ZNSt5tupleIJN7testing7MatcherIiEEEEC2ERKS3_
FN:642,_ZNSt5tupleIJiiiEEC2EOS0_
FNDA:5,_ZNSt5tupleIJiiiEEC2EOS0_
FN:642,_ZNSt5tupleIJiEEC2EOS0_
FNDA:4,_ZNSt5tupleIJiEEC2EOS0_
FN:968,_ZNSt5tupleIJPKN7testing8internal11MatcherBaseIiEEPKNS1_9EqMatcherIiEEEEC2IS5_S9_Lb1EEEOT_OT0_
FNDA:0,_ZNSt5tupleIJPKN7testing8internal11MatcherBaseIiEEPKNS1_9EqMatcherIiEEEEC2IS5_S9_Lb1EEEOT_OT0_
FN:968,_ZNSt5tupleIJPKN7testing8internal11MatcherBaseIRKS_IJiEEEEPKNS1_15AnythingMatcherEEEC2IS8_SB_Lb1EEEOT_OT0_
FNDA:0,_ZNSt5tupleIJPKN7testing8internal11MatcherBaseIRKS_IJiEEEEPKNS1_15AnythingMatcherEEEC2IS8_SB_Lb1EEEOT_OT0_
FN:968,_ZNSt5tupleIJPKN7testing8internal11MatcherBaseIRKS_IJiiiEEEEPKNS1_15AnythingMatcherEEEC2IS8_SB_Lb1EEEOT_OT0_
FNDA:0,_ZNSt5tupleIJPKN7testing8internal11MatcherBaseIRKS_IJiiiEEEEPKNS1_15AnythingMatcherEEEC2IS8_SB_Lb1EEEOT_OT0_
FN:968,_ZNSt5tupleIJPKN7testing8internal11MatcherBaseIiEEPKNS1_15AnythingMatcherEEEC2IS5_S8_Lb1EEEOT_OT0_
FNDA:0,_ZNSt5tupleIJPKN7testing8internal11MatcherBaseIiEEPKNS1_15AnythingMatcherEEEC2IS5_S8_Lb1EEEOT_OT0_
FN:1309,_ZSt12__get_helperILm0EPNSt7__cxx1118basic_stringstreamIcSt11char_traitsIcESaIcEEEJSt14default_deleteIS5_EEERT0_RSt11_Tuple_implIXT_EJS9_DpT1_EE
FNDA:678,_ZSt12__get_helperILm0EPNSt7__cxx1118basic_stringstreamIcSt11char_traitsIcESaIcEEEJSt14default_deleteIS5_EEERT0_RSt11_Tuple_implIXT_EJS9_DpT1_EE
FN:1309,_ZSt12__get_helperILm0EPKN7testing8internal11MatcherBaseIiEEJPKNS1_15AnythingMatcherEEERT0_RSt11_Tuple_implIXT_EJS9_DpT1_EE
FNDA:0,_ZSt12__get_helperILm0EPKN7testing8internal11MatcherBaseIiEEJPKNS1_15AnythingMatcherEEERT0_RSt11_Tuple_implIXT_EJS9_DpT1_EE
FN:1309,_ZSt12__get_helperILm1ESt14default_deleteINSt7__cxx1112basic_stringIcSt11char_traitsIcESaIcEEEEJEERT0_RSt11_Tuple_implIXT_EJS8_DpT1_EE
FNDA:0,_ZSt12__get_helperILm1ESt14default_deleteINSt7__cxx1112basic_stringIcSt11char_traitsIcESaIcEEEEJEERT0_RSt11_Tuple_implIXT_EJS8_DpT1_EE
FN:1309,_ZSt12__get_helperILm0EiJiiEERT0_RSt11_Tuple_implIXT_EJS0_DpT1_EE
FNDA:5,_ZSt12__get_helperILm0EiJiiEERT0_RSt11_Tuple_implIXT_EJS0_DpT1_EE
FN:1309,_ZSt12__get_helperILm1ESt14default_deleteINSt7__cxx1118basic_stringstreamIcSt11char_traitsIcESaIcEEEEJEERT0_RSt11_Tuple_implIXT_EJS8_DpT1_EE
FNDA:339,_ZSt12__get_helperILm1ESt14default_deleteINSt7__cxx1118basic_stringstreamIcSt11char_traitsIcESaIcEEEEJEERT0_RSt11_Tuple_implIXT_EJS8_DpT1_EE
FN:1309,_ZSt12__get_helperILm1EiJiEERT0_RSt11_Tuple_implIXT_EJS0_DpT1_EE
FNDA:5,_ZSt12__get_helperILm1EiJiEERT0_RSt11_Tuple_implIXT_EJS0_DpT1_EE
FN:1309,_ZSt12__get_helperILm2EiJEERT0_RSt11_Tuple_implIXT_EJS0_DpT1_EE
FNDA:5,_ZSt12__get_helperILm2EiJEERT0_RSt11_Tuple_implIXT_EJS0_DpT1_EE
FN:1309,_ZSt12__get_helperILm0EPKN7testing8internal11MatcherBaseIiEEJPKNS1_9EqMatcherIiEEEERT0_RSt11_Tuple_implIXT_EJSA_DpT1_EE
FNDA:0,_ZSt12__get_helperILm0EPKN7testing8internal11MatcherBaseIiEEJPKNS1_9EqMatcherIiEEEERT0_RSt11_Tuple_implIXT_EJSA_DpT1_EE
FN:1309,_ZSt12__get_helperILm0EPNSt7__cxx1112basic_stringIcSt11char_traitsIcESaIcEEEJSt14default_deleteIS5_EEERT0_RSt11_Tuple_implIXT_EJS9_DpT1_EE
FNDA:5,_ZSt12__get_helperILm0EPNSt7__cxx1112basic_stringIcSt11char_traitsIcESaIcEEEJSt14default_deleteIS5_EEERT0_RSt11_Tuple_implIXT_EJS9_DpT1_EE
FN:1309,_ZSt12__get_helperILm0EiJEERT0_RSt11_Tuple_implIXT_EJS0_DpT1_EE
FNDA:4,_ZSt12__get_helperILm0EiJEERT0_RSt11_Tuple_implIXT_EJS0_DpT1_EE
FN:1309,_ZSt12__get_helperILm0EPKN7testing8internal11MatcherBaseIRKSt5tupleIJiiiEEEEJPKNS1_15AnythingMatcherEEERT0_RSt11_Tuple_implIXT_EJSD_DpT1_EE
FNDA:0,_ZSt12__get_helperILm0EPKN7testing8internal11MatcherBaseIRKSt5tupleIJiiiEEEEJPKNS1_15AnythingMatcherEEERT0_RSt11_Tuple_implIXT_EJSD_DpT1_EE
FN:1309,_ZSt12__get_helperILm0EPKN7testing8internal11MatcherBaseIRKSt5tupleIJiEEEEJPKNS1_15AnythingMatcherEEERT0_RSt11_Tuple_implIXT_EJSD_DpT1_EE
FNDA:0,_ZSt12__get_helperILm0EPKN7testing8internal11MatcherBaseIRKSt5tupleIJiEEEEJPKNS1_15AnythingMatcherEEERT0_RSt11_Tuple_implIXT_EJSD_DpT1_EE
FN:1314,_ZSt12__get_helperILm2EiJEERKT0_RKSt11_Tuple_implIXT_EJS0_DpT1_EE
FNDA:5,_ZSt12__get_helperILm2EiJEERKT0_RKSt11_Tuple_implIXT_EJS0_DpT1_EE
FN:1314,_ZSt12__get_helperILm0EPNSt7__cxx1112basic_stringIcSt11char_traitsIcESaIcEEEJSt14default_deleteIS5_EEERKT0_RKSt11_Tuple_implIXT_EJS9_DpT1_EE
FNDA:0,_ZSt12__get_helperILm0EPNSt7__cxx1112basic_stringIcSt11char_traitsIcESaIcEEEJSt14default_deleteIS5_EEERKT0_RKSt11_Tuple_implIXT_EJS9_DpT1_EE
FN:1314,_ZSt12__get_helperILm1EN7testing7MatcherIiEEJS2_EERKT0_RKSt11_Tuple_implIXT_EJS3_DpT1_EE
FNDA:5,_ZSt12__get_helperILm1EN7testing7MatcherIiEEJS2_EERKT0_RKSt11_Tuple_implIXT_EJS3_DpT1_EE
FN:1314,_ZSt12__get_helperILm0EN7testing7MatcherIiEEJEERKT0_RKSt11_Tuple_implIXT_EJS3_DpT1_EE
FNDA:4,_ZSt12__get_helperILm0EN7testing7MatcherIiEEJEERKT0_RKSt11_Tuple_implIXT_EJS3_DpT1_EE
FN:1314,_ZSt12__get_helperILm1EiJiEERKT0_RKSt11_Tuple_implIXT_EJS0_DpT1_EE
FNDA:5,_ZSt12__get_helperILm1EiJiEERKT0_RKSt11_Tuple_implIXT_EJS0_DpT1_EE
FN:1314,_ZSt12__get_helperILm0EiJiiEERKT0_RKSt11_Tuple_implIXT_EJS0_DpT1_EE
FNDA:5,_ZSt12__get_helperILm0EiJiiEERKT0_RKSt11_Tuple_implIXT_EJS0_DpT1_EE
FN:1314,_ZSt12__get_helperILm2EN7testing7MatcherIiEEJEERKT0_RKSt11_Tuple_implIXT_EJS3_DpT1_EE
FNDA:5,_ZSt12__get_helperILm2EN7testing7MatcherIiEEJEERKT0_RKSt11_Tuple_implIXT_EJS3_DpT1_EE
FN:1314,_ZSt12__get_helperILm0EPN7testing8internal11ThreadLocalIPNS0_8SequenceEE18ValueHolderFactoryEJSt14default_deleteIS6_EEERKT0_RKSt11_Tuple_implIXT_EJSA_DpT1_EE
FNDA:5,_ZSt12__get_helperILm0EPN7testing8internal11ThreadLocalIPNS0_8SequenceEE18ValueHolderFactoryEJSt14default_deleteIS6_EEERKT0_RKSt11_Tuple_implIXT_EJSA_DpT1_EE
FN:1314,_ZSt12__get_helperILm0EN7testing7MatcherIiEEJS2_S2_EERKT0_RKSt11_Tuple_implIXT_EJS3_DpT1_EE
FNDA:5,_ZSt12__get_helperILm0EN7testing7MatcherIiEEJS2_S2_EERKT0_RKSt11_Tuple_implIXT_EJS3_DpT1_EE
FN:1314,_ZSt12__get_helperILm0EiJEERKT0_RKSt11_Tuple_implIXT_EJS0_DpT1_EE
FNDA:5,_ZSt12__get_helperILm0EiJEERKT0_RKSt11_Tuple_implIXT_EJS0_DpT1_EE
FN:1320,_ZSt3getILm0EJPNSt7__cxx1118basic_stringstreamIcSt11char_traitsIcESaIcEEESt14default_deleteIS5_EEERNSt13tuple_elementIXT_ESt5tupleIJDpT0_EEE4typeERSD_
FNDA:678,_ZSt3getILm0EJPNSt7__cxx1118basic_stringstreamIcSt11char_traitsIcESaIcEEESt14default_deleteIS5_EEERNSt13tuple_elementIXT_ESt5tupleIJDpT0_EEE4typeERSD_
FN:1320,_ZSt3getILm0EJPKN7testing8internal11MatcherBaseIiEEPKNS1_9EqMatcherIiEEEERNSt13tuple_elementIXT_ESt5tupleIJDpT0_EEE4typeERSE_
FNDA:0,_ZSt3getILm0EJPKN7testing8internal11MatcherBaseIiEEPKNS1_9EqMatcherIiEEEERNSt13tuple_elementIXT_ESt5tupleIJDpT0_EEE4typeERSE_
FN:1320,_ZSt3getILm0EJPNSt7__cxx1112basic_stringIcSt11char_traitsIcESaIcEEESt14default_deleteIS5_EEERNSt13tuple_elementIXT_ESt5tupleIJDpT0_EEE4typeERSD_
FNDA:5,_ZSt3getILm0EJPNSt7__cxx1112basic_stringIcSt11char_traitsIcESaIcEEESt14default_deleteIS5_EEERNSt13tuple_elementIXT_ESt5tupleIJDpT0_EEE4typeERSD_
FN:1320,_ZSt3getILm0EJPKN7testing8internal11MatcherBaseIRKSt5tupleIJiiiEEEEPKNS1_15AnythingMatcherEEERNSt13tuple_elementIXT_ES3_IJDpT0_EEE4typeERSG_
FNDA:0,_ZSt3getILm0EJPKN7testing8internal11MatcherBaseIRKSt5tupleIJiiiEEEEPKNS1_15AnythingMatcherEEERNSt13tuple_elementIXT_ES3_IJDpT0_EEE4typeERSG_
FN:1320,_ZSt3getILm0EJPKN7testing8internal11MatcherBaseIiEEPKNS1_15AnythingMatcherEEERNSt13tuple_elementIXT_ESt5tupleIJDpT0_EEE4typeERSD_
FNDA:0,_ZSt3getILm0EJPKN7testing8internal11MatcherBaseIiEEPKNS1_15AnythingMatcherEEERNSt13tuple_elementIXT_ESt5tupleIJDpT0_EEE4typeERSD_
FN:1320,_ZSt3getILm0EJPKN7testing8internal11MatcherBaseIRKSt5tupleIJiEEEEPKNS1_15AnythingMatcherEEERNSt13tuple_elementIXT_ES3_IJDpT0_EEE4typeERSG_
FNDA:0,_ZSt3getILm0EJPKN7testing8internal11MatcherBaseIRKSt5tupleIJiEEEEPKNS1_15AnythingMatcherEEERNSt13tuple_elementIXT_ES3_IJDpT0_EEE4typeERSG_
FN:1320,_ZSt3getILm1EJPNSt7__cxx1118basic_stringstreamIcSt11char_traitsIcESaIcEEESt14default_deleteIS5_EEERNSt13tuple_elementIXT_ESt5tupleIJDpT0_EEE4typeERSD_
FNDA:339,_ZSt3getILm1EJPNSt7__cxx1118basic_stringstreamIcSt11char_traitsIcESaIcEEESt14default_deleteIS5_EEERNSt13tuple_elementIXT_ESt5tupleIJDpT0_EEE4typeERSD_
FN:1320,_ZSt3getILm1EJPNSt7__cxx1112basic_stringIcSt11char_traitsIcESaIcEEESt14default_deleteIS5_EEERNSt13tuple_elementIXT_ESt5tupleIJDpT0_EEE4typeERSD_
FNDA:0,_ZSt3getILm1EJPNSt7__cxx1112basic_stringIcSt11char_traitsIcESaIcEEESt14default_deleteIS5_EEERNSt13tuple_elementIXT_ESt5tupleIJDpT0_EEE4typeERSD_
FN:1320,_ZSt3getILm0EJiEERNSt13tuple_elementIXT_ESt5tupleIJDpT0_EEE4typeERS4_
FNDA:4,_ZSt3getILm0EJiEERNSt13tuple_elementIXT_ESt5tupleIJDpT0_EEE4typeERS4_
FN:1320,_ZSt3getILm0EJiiiEERNSt13tuple_elementIXT_ESt5tupleIJDpT0_EEE4typeERS4_
FNDA:5,_ZSt3getILm0EJiiiEERNSt13tuple_elementIXT_ESt5tupleIJDpT0_EEE4typeERS4_
FN:1320,_ZSt3getILm1EJiiiEERNSt13tuple_elementIXT_ESt5tupleIJDpT0_EEE4typeERS4_
FNDA:5,_ZSt3getILm1EJiiiEERNSt13tuple_elementIXT_ESt5tupleIJDpT0_EEE4typeERS4_
FN:1320,_ZSt3getILm2EJiiiEERNSt13tuple_elementIXT_ESt5tupleIJDpT0_EEE4typeERS4_
FNDA:5,_ZSt3getILm2EJiiiEERNSt13tuple_elementIXT_ESt5tupleIJDpT0_EEE4typeERS4_
FN:1326,_ZSt3getILm2EJiiiEERKNSt13tuple_elementIXT_ESt5tupleIJDpT0_EEE4typeERKS4_
FNDA:5,_ZSt3getILm2EJiiiEERKNSt13tuple_elementIXT_ESt5tupleIJDpT0_EEE4typeERKS4_
FN:1326,_ZSt3getILm1EJN7testing7MatcherIiEES2_S2_EERKNSt13tuple_elementIXT_ESt5tupleIJDpT0_EEE4typeERKS7_
FNDA:5,_ZSt3getILm1EJN7testing7MatcherIiEES2_S2_EERKNSt13tuple_elementIXT_ESt5tupleIJDpT0_EEE4typeERKS7_
FN:1326,_ZSt3getILm1EJiiiEERKNSt13tuple_elementIXT_ESt5tupleIJDpT0_EEE4typeERKS4_
FNDA:5,_ZSt3getILm1EJiiiEERKNSt13tuple_elementIXT_ESt5tupleIJDpT0_EEE4typeERKS4_
FN:1326,_ZSt3getILm0EJiEERKNSt13tuple_elementIXT_ESt5tupleIJDpT0_EEE4typeERKS4_
FNDA:5,_ZSt3getILm0EJiEERKNSt13tuple_elementIXT_ESt5tupleIJDpT0_EEE4typeERKS4_
FN:1326,_ZSt3getILm0EJN7testing7MatcherIiEEEERKNSt13tuple_elementIXT_ESt5tupleIJDpT0_EEE4typeERKS7_
FNDA:4,_ZSt3getILm0EJN7testing7MatcherIiEEEERKNSt13tuple_elementIXT_ESt5tupleIJDpT0_EEE4typeERKS7_
FN:1326,_ZSt3getILm0EJPNSt7__cxx1112basic_stringIcSt11char_traitsIcESaIcEEESt14default_deleteIS5_EEERKNSt13tuple_elementIXT_ESt5tupleIJDpT0_EEE4typeERKSD_
FNDA:0,_ZSt3getILm0EJPNSt7__cxx1112basic_stringIcSt11char_traitsIcESaIcEEESt14default_deleteIS5_EEERKNSt13tuple_elementIXT_ESt5tupleIJDpT0_EEE4typeERKSD_
FN:1326,_ZSt3getILm0EJN7testing7MatcherIiEES2_S2_EERKNSt13tuple_elementIXT_ESt5tupleIJDpT0_EEE4typeERKS7_
FNDA:5,_ZSt3getILm0EJN7testing7MatcherIiEES2_S2_EERKNSt13tuple_elementIXT_ESt5tupleIJDpT0_EEE4typeERKS7_
FN:1326,_ZSt3getILm0EJiiiEERKNSt13tuple_elementIXT_ESt5tupleIJDpT0_EEE4typeERKS4_
FNDA:5,_ZSt3getILm0EJiiiEERKNSt13tuple_elementIXT_ESt5tupleIJDpT0_EEE4typeERKS4_
FN:1326,_ZSt3getILm0EJPN7testing8internal11ThreadLocalIPNS0_8SequenceEE18ValueHolderFactoryESt14default_deleteIS6_EEERKNSt13tuple_elementIXT_ESt5tupleIJDpT0_EEE4typeERKSE_
FNDA:5,_ZSt3getILm0EJPN7testing8internal11ThreadLocalIPNS0_8SequenceEE18ValueHolderFactoryESt14default_deleteIS6_EEERKNSt13tuple_elementIXT_ESt5tupleIJDpT0_EEE4typeERKSE_
FN:1326,_ZSt3getILm2EJN7testing7MatcherIiEES2_S2_EERKNSt13tuple_elementIXT_ESt5tupleIJDpT0_EEE4typeERKS7_
FNDA:5,_ZSt3getILm2EJN7testing7MatcherIiEES2_S2_EERKNSt13tuple_elementIXT_ESt5tupleIJDpT0_EEE4typeERKS7_
FN:1332,_ZSt3getILm0EJPKN7testing8internal11MatcherBaseIiEEPKNS1_15AnythingMatcherEEEONSt13tuple_elementIXT_ESt5tupleIJDpT0_EEE4typeEOSD_
FNDA:0,_ZSt3getILm0EJPKN7testing8internal11MatcherBaseIiEEPKNS1_15AnythingMatcherEEEONSt13tuple_elementIXT_ESt5tupleIJDpT0_EEE4typeEOSD_
FN:1332,_ZSt3getILm1EJiiiEEONSt13tuple_elementIXT_ESt5tupleIJDpT0_EEE4typeEOS4_
FNDA:5,_ZSt3getILm1EJiiiEEONSt13tuple_elementIXT_ESt5tupleIJDpT0_EEE4typeEOS4_
FN:1332,_ZSt3getILm2EJiiiEEONSt13tuple_elementIXT_ESt5tupleIJDpT0_EEE4typeEOS4_
FNDA:5,_ZSt3getILm2EJiiiEEONSt13tuple_elementIXT_ESt5tupleIJDpT0_EEE4typeEOS4_
FN:1332,_ZSt3getILm0EJiEEONSt13tuple_elementIXT_ESt5tupleIJDpT0_EEE4typeEOS4_
FNDA:4,_ZSt3getILm0EJiEEONSt13tuple_elementIXT_ESt5tupleIJDpT0_EEE4typeEOS4_
FN:1332,_ZSt3getILm0EJPKN7testing8internal11MatcherBaseIiEEPKNS1_9EqMatcherIiEEEEONSt13tuple_elementIXT_ESt5tupleIJDpT0_EEE4typeEOSE_
FNDA:0,_ZSt3getILm0EJPKN7testing8internal11MatcherBaseIiEEPKNS1_9EqMatcherIiEEEEONSt13tuple_elementIXT_ESt5tupleIJDpT0_EEE4typeEOSE_
FN:1332,_ZSt3getILm0EJPKN7testing8internal11MatcherBaseIRKSt5tupleIJiEEEEPKNS1_15AnythingMatcherEEEONSt13tuple_elementIXT_ES3_IJDpT0_EEE4typeEOSG_
FNDA:0,_ZSt3getILm0EJPKN7testing8internal11MatcherBaseIRKSt5tupleIJiEEEEPKNS1_15AnythingMatcherEEEONSt13tuple_elementIXT_ES3_IJDpT0_EEE4typeEOSG_
FN:1332,_ZSt3getILm0EJiiiEEONSt13tuple_elementIXT_ESt5tupleIJDpT0_EEE4typeEOS4_
FNDA:5,_ZSt3getILm0EJiiiEEONSt13tuple_elementIXT_ESt5tupleIJDpT0_EEE4typeEOS4_
FN:1332,_ZSt3getILm0EJPKN7testing8internal11MatcherBaseIRKSt5tupleIJiiiEEEEPKNS1_15AnythingMatcherEEEONSt13tuple_elementIXT_ES3_IJDpT0_EEE4typeEOSG_
FNDA:0,_ZSt3getILm0EJPKN7testing8internal11MatcherBaseIRKSt5tupleIJiiiEEEEPKNS1_15AnythingMatcherEEEONSt13tuple_elementIXT_ES3_IJDpT0_EEE4typeEOSG_
FN:1470,_ZSt10make_tupleIJPKN7testing8internal11MatcherBaseIRKSt5tupleIJiEEEEPKNS1_15AnythingMatcherEEES3_IJDpNSt17__decay_and_stripIT_E6__typeEEEDpOSE_
FNDA:0,_ZSt10make_tupleIJPKN7testing8internal11MatcherBaseIRKSt5tupleIJiEEEEPKNS1_15AnythingMatcherEEES3_IJDpNSt17__decay_and_stripIT_E6__typeEEEDpOSE_
FN:1470,_ZSt10make_tupleIJPKN7testing8internal11MatcherBaseIiEEPKNS1_9EqMatcherIiEEEESt5tupleIJDpNSt17__decay_and_stripIT_E6__typeEEEDpOSC_
FNDA:0,_ZSt10make_tupleIJPKN7testing8internal11MatcherBaseIiEEPKNS1_9EqMatcherIiEEEESt5tupleIJDpNSt17__decay_and_stripIT_E6__typeEEEDpOSC_
FN:1470,_ZSt10make_tupleIJN7testing7MatcherIiEEEESt5tupleIJDpNSt17__decay_and_stripIT_E6__typeEEEDpOS5_
FNDA:4,_ZSt10make_tupleIJN7testing7MatcherIiEEEESt5tupleIJDpNSt17__decay_and_stripIT_E6__typeEEEDpOS5_
FN:1470,_ZSt10make_tupleIJPKN7testing8internal11MatcherBaseIiEEPKNS1_15AnythingMatcherEEESt5tupleIJDpNSt17__decay_and_stripIT_E6__typeEEEDpOSB_
FNDA:0,_ZSt10make_tupleIJPKN7testing8internal11MatcherBaseIiEEPKNS1_15AnythingMatcherEEESt5tupleIJDpNSt17__decay_and_stripIT_E6__typeEEEDpOSB_
FN:1470,_ZSt10make_tupleIJPKN7testing8internal11MatcherBaseIRKSt5tupleIJiiiEEEEPKNS1_15AnythingMatcherEEES3_IJDpNSt17__decay_and_stripIT_E6__typeEEEDpOSE_
FNDA:0,_ZSt10make_tupleIJPKN7testing8internal11MatcherBaseIRKSt5tupleIJiiiEEEEPKNS1_15AnythingMatcherEEES3_IJDpNSt17__decay_and_stripIT_E6__typeEEEDpOSE_
FN:1470,_ZSt10make_tupleIJN7testing7MatcherIiEES2_S2_EESt5tupleIJDpNSt17__decay_and_stripIT_E6__typeEEEDpOS5_
FNDA:5,_ZSt10make_tupleIJN7testing7MatcherIiEES2_S2_EESt5tupleIJDpNSt17__decay_and_stripIT_E6__typeEEEDpOS5_
DA:113,0
DA:113,339
DA:128,18
DA:128,10
DA:128,10
DA:132,0
DA:133,0
DA:132,0
DA:133,0
DA:132,0
DA:133,0
DA:132,0
DA:133,0
DA:132,0
DA:133,0
DA:132,10
DA:133,10
DA:132,10
DA:133,10
DA:132,5
DA:133,5
DA:132,19
DA:133,19
DA:132,5
DA:133,5
DA:132,9
DA:133,9
DA:160,0
DA:160,0
DA:160,0
DA:160,10
DA:160,10
DA:160,18
DA:160,5
DA:160,678
DA:163,5
DA:163,5
DA:163,9
DA:163,5
DA:163,5
DA:163,10
DA:163,5
DA:163,0
DA:195,0
DA:195,0
DA:195,0
DA:195,0
DA:195,10
DA:195,10
DA:195,5
DA:195,678
DA:198,5
DA:198,5
DA:198,5
DA:198,5
DA:198,5
DA:198,0
DA:201,5
DA:201,5
DA:216,0
DA:218,0
DA:216,0
DA:218,0
DA:216,0
DA:218,0
DA:216,0
DA:218,0
DA:216,5
DA:218,5
DA:216,5
DA:218,5
DA:216,5
DA:218,5
DA:216,5
DA:218,5
DA:220,10
DA:220,10
DA:227,5
DA:230,5
DA:231,10
DA:227,5
DA:230,5
DA:231,10
DA:334,10
DA:334,0
DA:334,339
DA:334,8
DA:337,4
DA:337,5
DA:337,5
DA:337,5
DA:348,0
DA:349,0
DA:348,0
DA:349,0
DA:348,5
DA:349,5
DA:348,5
DA:349,5
DA:348,4
DA:349,4
DA:348,5
DA:349,5
DA:351,8
DA:351,10
DA:358,5
DA:360,5
DA:358,4
DA:360,4
DA:626,4
DA:627,4
DA:626,5
DA:627,5
DA:626,5
DA:627,5
DA:626,5
DA:627,5
DA:640,8
DA:640,10
DA:642,4
DA:642,5
DA:968,0
DA:969,0
DA:968,0
DA:969,0
DA:968,0
DA:969,0
DA:968,0
DA:969,0
DA:1309,0
DA:1310,0
DA:1309,0
DA:1310,0
DA:1309,0
DA:1310,0
DA:1309,4
DA:1310,4
DA:1309,5
DA:1310,5
DA:1309,5
DA:1310,5
DA:1309,5
DA:1310,5
DA:1309,0
DA:1310,0
DA:1309,0
DA:1310,0
DA:1309,339
DA:1310,339
DA:1309,5
DA:1310,5
DA:1309,678
DA:1310,678
DA:1314,5
DA:1315,5
DA:1314,5
DA:1315,5
DA:1314,5
DA:1315,5
DA:1314,5
DA:1315,5
DA:1314,4
DA:1315,4
DA:1314,5
DA:1315,5
DA:1314,5
DA:1315,5
DA:1314,5
DA:1315,5
DA:1314,5
DA:1315,5
DA:1314,0
DA:1315,0
DA:1320,0
DA:1321,0
DA:1320,0
DA:1321,0
DA:1320,0
DA:1321,0
DA:1320,4
DA:1321,4
DA:1320,5
DA:1321,5
DA:1320,5
DA:1321,5
DA:1320,5
DA:1321,5
DA:1320,0
DA:1321,0
DA:1320,0
DA:1321,0
DA:1320,339
DA:1321,339
DA:1320,5
DA:1321,5
DA:1320,678
DA:1321,678
DA:1326,5
DA:1327,5
DA:1326,5
DA:1327,5
DA:1326,5
DA:1327,5
DA:1326,5
DA:1327,5
DA:1326,5
DA:1327,5
DA:1326,5
DA:1327,5
DA:1326,4
DA:1327,4
DA:1326,5
DA:1327,5
DA:1326,5
DA:1327,5
DA:1326,0
DA:1327,0
DA:1332,0
DA:1335,0
DA:1332,0
DA:1335,0
DA:1332,0
DA:1335,0
DA:1332,4
DA:1335,4
DA:1332,5
DA:1335,5
DA:1332,5
DA:1335,5
DA:1332,5
DA:1335,5
DA:1332,0
DA:1335,0
DA:1470,0
DA:1474,0
DA:1470,0
DA:1474,0
DA:1470,0
DA:1474,0
DA:1470,0
DA:1474,0
DA:1470,4
DA:1474,4
DA:1470,5
DA:1474,5
end_of_record
SF:/usr/include/c++/9/bits/stl_vector.h
FN:94,_ZNSt12_Vector_baseIPKvSaIS1_EE17_Vector_impl_dataC2Ev
FNDA:39,_ZNSt12_Vector_baseIPKvSaIS1_EE17_Vector_impl_dataC2Ev
FN:106,_ZNSt12_Vector_baseIPKvSaIS1_EE17_Vector_impl_data12_M_copy_dataERKS4_
FNDA:30,_ZNSt12_Vector_baseIPKvSaIS1_EE17_Vector_impl_data12_M_copy_dataERKS4_
FN:114,_ZNSt12_Vector_baseIPKvSaIS1_EE17_Vector_impl_data12_M_swap_dataERS4_
FNDA:10,_ZNSt12_Vector_baseIPKvSaIS1_EE17_Vector_impl_data12_M_swap_dataERS4_
FN:128,_ZNSt12_Vector_baseIPKvSaIS1_EE12_Vector_implC2Ev
FNDA:29,_ZNSt12_Vector_baseIPKvSaIS1_EE12_Vector_implC2Ev
FN:273,_ZNSt12_Vector_baseIPKvSaIS1_EE19_M_get_Tp_allocatorEv
FNDA:67,_ZNSt12_Vector_baseIPKvSaIS1_EE19_M_get_Tp_allocatorEv
FN:273,_ZNSt12_Vector_baseISt10shared_ptrIN7testing8internal15ExpectationBaseEESaIS4_EE19_M_get_Tp_allocatorEv
FNDA:67,_ZNSt12_Vector_baseISt10shared_ptrIN7testing8internal15ExpectationBaseEESaIS4_EE19_M_get_Tp_allocatorEv
FN:277,_ZNKSt12_Vector_baseISt10shared_ptrIN7testing8internal15ExpectationBaseEESaIS4_EE19_M_get_Tp_allocatorEv
FNDA:18,_ZNKSt12_Vector_baseISt10shared_ptrIN7testing8internal15ExpectationBaseEESaIS4_EE19_M_get_Tp_allocatorEv
FN:277,_ZNKSt12_Vector_baseIPKvSaIS1_EE19_M_get_Tp_allocatorEv
FNDA:18,_ZNKSt12_Vector_baseIPKvSaIS1_EE19_M_get_Tp_allocatorEv
FN:285,_ZNSt12_Vector_baseIPKvSaIS1_EEC2Ev
FNDA:29,_ZNSt12_Vector_baseIPKvSaIS1_EEC2Ev
FN:330,_ZNSt12_Vector_baseIPKvSaIS1_EED2Ev
FNDA:29,_ZNSt12_Vector_baseIPKvSaIS1_EED2Ev
FN:340,_ZNSt12_Vector_baseIPKvSaIS1_EE11_M_allocateEm
FNDA:9,_ZNSt12_Vector_baseIPKvSaIS1_EE11_M_allocateEm
FN:340,_ZNSt12_Vector_baseISt10shared_ptrIN7testing8internal15ExpectationBaseEESaIS4_EE11_M_allocateEm
FNDA:9,_ZNSt12_Vector_baseISt10shared_ptrIN7testing8internal15ExpectationBaseEESaIS4_EE11_M_allocateEm
FN:347,_ZNSt12_Vector_baseIPKvSaIS1_EE13_M_deallocateEPS1_m
FNDA:38,_ZNSt12_Vector_baseIPKvSaIS1_EE13_M_deallocateEPS1_m
FN:347,_ZNSt12_Vector_baseISt10shared_ptrIN7testing8internal15ExpectationBaseEESaIS4_EE13_M_deallocateEPS4_m
FNDA:29,_ZNSt12_Vector_baseISt10shared_ptrIN7testing8internal15ExpectationBaseEESaIS4_EE13_M_deallocateEPS4_m
FN:428,_ZNSt6vectorISt10shared_ptrIN7testing8internal15ExpectationBaseEESaIS4_EE19_S_nothrow_relocateESt17integral_constantIbLb1EE
FNDA:18,_ZNSt6vectorISt10shared_ptrIN7testing8internal15ExpectationBaseEESaIS4_EE19_S_nothrow_relocateESt17integral_constantIbLb1EE
FN:428,_ZNSt6vectorIPKvSaIS1_EE19_S_nothrow_relocateESt17integral_constantIbLb1EE
FNDA:18,_ZNSt6vectorIPKvSaIS1_EE19_S_nothrow_relocateESt17integral_constantIbLb1EE
FN:441,_ZNSt6vectorISt10shared_ptrIN7testing8internal15ExpectationBaseEESaIS4_EE15_S_use_relocateEv
FNDA:18,_ZNSt6vectorISt10shared_ptrIN7testing8internal15ExpectationBaseEESaIS4_EE15_S_use_relocateEv
FN:441,_ZNSt6vectorIPKvSaIS1_EE15_S_use_relocateEv
FNDA:18,_ZNSt6vectorIPKvSaIS1_EE15_S_use_relocateEv
FN:450,_ZNSt6vectorISt10shared_ptrIN7testing8internal15ExpectationBaseEESaIS4_EE14_S_do_relocateEPS4_S7_S7_RS5_St17integral_constantIbLb1EE
FNDA:18,_ZNSt6vectorISt10shared_ptrIN7testing8internal15ExpectationBaseEESaIS4_EE14_S_do_relocateEPS4_S7_S7_RS5_St17integral_constantIbLb1EE
FN:450,_ZNSt6vectorIPKvSaIS1_EE14_S_do_relocateEPS1_S4_S4_RS2_St17integral_constantIbLb1EE
FNDA:18,_ZNSt6vectorIPKvSaIS1_EE14_S_do_relocateEPS1_S4_S4_RS2_St17integral_constantIbLb1EE
FN:462,_ZNSt6vectorISt10shared_ptrIN7testing8internal15ExpectationBaseEESaIS4_EE11_S_relocateEPS4_S7_S7_RS5_
FNDA:18,_ZNSt6vectorISt10shared_ptrIN7testing8internal15ExpectationBaseEESaIS4_EE11_S_relocateEPS4_S7_S7_RS5_
FN:462,_ZNSt6vectorIPKvSaIS1_EE11_S_relocateEPS1_S4_S4_RS2_
FNDA:18,_ZNSt6vectorIPKvSaIS1_EE11_S_relocateEPS1_S4_S4_RS2_
FN:484,_ZNSt6vectorIPKvSaIS1_EEC2Ev
FNDA:29,_ZNSt6vectorIPKvSaIS1_EEC2Ev
FN:675,_ZNSt6vectorIPKvSaIS1_EED2Ev
FNDA:29,_ZNSt6vectorIPKvSaIS1_EED2Ev
FN:808,_ZNSt6vectorISt10shared_ptrIN7testing8internal15ExpectationBaseEESaIS4_EE5beginEv
FNDA:19,_ZNSt6vectorISt10shared_ptrIN7testing8internal15ExpectationBaseEESaIS4_EE5beginEv
FN:808,_ZNSt6vectorIPKvSaIS1_EE5beginEv
FNDA:28,_ZNSt6vectorIPKvSaIS1_EE5beginEv
FN:817,_ZNKSt6vectorIPKvSaIS1_EE5beginEv
FNDA:2,_ZNKSt6vectorIPKvSaIS1_EE5beginEv
FN:817,_ZNKSt6vectorISt10shared_ptrIN7testing8internal15ExpectationBaseEESaIS4_EE5beginEv
FNDA:9,_ZNKSt6vectorISt10shared_ptrIN7testing8internal15ExpectationBaseEESaIS4_EE5beginEv
FN:826,_ZNSt6vectorIPKvSaIS1_EE3endEv
FNDA:37,_ZNSt6vectorIPKvSaIS1_EE3endEv
FN:826,_ZNSt6vectorISt10shared_ptrIN7testing8internal15ExpectationBaseEESaIS4_EE3endEv
FNDA:28,_ZNSt6vectorISt10shared_ptrIN7testing8internal15ExpectationBaseEESaIS4_EE3endEv
FN:835,_ZNKSt6vectorISt10shared_ptrIN7testing8internal15ExpectationBaseEESaIS4_EE3endEv
FNDA:9,_ZNKSt6vectorISt10shared_ptrIN7testing8internal15ExpectationBaseEESaIS4_EE3endEv
FN:835,_ZNKSt6vectorIPKvSaIS1_EE3endEv
FNDA:2,_ZNKSt6vectorIPKvSaIS1_EE3endEv
FN:853,_ZNKSt6vectorIPKvSaIS1_EE6rbeginEv
FNDA:2,_ZNKSt6vectorIPKvSaIS1_EE6rbeginEv
FN:853,_ZNKSt6vectorISt10shared_ptrIN7testing8internal15ExpectationBaseEESaIS4_EE6rbeginEv
FNDA:9,_ZNKSt6vectorISt10shared_ptrIN7testing8internal15ExpectationBaseEESaIS4_EE6rbeginEv
FN:871,_ZNKSt6vectorIPKvSaIS1_EE4rendEv
FNDA:2,_ZNKSt6vectorIPKvSaIS1_EE4rendEv
FN:871,_ZNKSt6vectorISt10shared_ptrIN7testing8internal15ExpectationBaseEESaIS4_EE4rendEv
FNDA:9,_ZNKSt6vectorISt10shared_ptrIN7testing8internal15ExpectationBaseEESaIS4_EE4rendEv
FN:915,_ZNKSt6vectorIPKvSaIS1_EE4sizeEv
FNDA:54,_ZNKSt6vectorIPKvSaIS1_EE4sizeEv
FN:915,_ZNKSt6vectorISt10shared_ptrIN7testing8internal15ExpectationBaseEESaIS4_EE4sizeEv
FNDA:46,_ZNKSt6vectorISt10shared_ptrIN7testing8internal15ExpectationBaseEESaIS4_EE4sizeEv
FN:920,_ZNKSt6vectorISt10shared_ptrIN7testing8internal15ExpectationBaseEESaIS4_EE8max_sizeEv
FNDA:18,_ZNKSt6vectorISt10shared_ptrIN7testing8internal15ExpectationBaseEESaIS4_EE8max_sizeEv
FN:920,_ZNKSt6vectorIPKvSaIS1_EE8max_sizeEv
FNDA:18,_ZNKSt6vectorIPKvSaIS1_EE8max_sizeEv
FN:1058,_ZNKSt6vectorISt10shared_ptrIN7testing8internal15ExpectationBaseEESaIS4_EEixEm
FNDA:0,_ZNKSt6vectorISt10shared_ptrIN7testing8internal15ExpectationBaseEESaIS4_EEixEm
FN:1058,_ZNKSt6vectorIPKvSaIS1_EEixEm
FNDA:9,_ZNKSt6vectorIPKvSaIS1_EEixEm
FN:1184,_ZNSt6vectorISt10shared_ptrIN7testing8internal15ExpectationBaseEESaIS4_EE9push_backERKS4_
FNDA:9,_ZNSt6vectorISt10shared_ptrIN7testing8internal15ExpectationBaseEESaIS4_EE9push_backERKS4_
FN:1200,_ZNSt6vectorIPKvSaIS1_EE9push_backEOS1_
FNDA:9,_ZNSt6vectorIPKvSaIS1_EE9push_backEOS1_
FN:1477,_ZNSt6vectorIPKvSaIS1_EE4swapERS3_
FNDA:10,_ZNSt6vectorIPKvSaIS1_EE4swapERS3_
FN:1753,_ZNKSt6vectorISt10shared_ptrIN7testing8internal15ExpectationBaseEESaIS4_EE12_M_check_lenEmPKc
FNDA:9,_ZNKSt6vectorISt10shared_ptrIN7testing8internal15ExpectationBaseEESaIS4_EE12_M_check_lenEmPKc
FN:1753,_ZNKSt6vectorIPKvSaIS1_EE12_M_check_lenEmPKc
FNDA:9,_ZNKSt6vectorIPKvSaIS1_EE12_M_check_lenEmPKc
FN:1773,_ZNSt6vectorISt10shared_ptrIN7testing8internal15ExpectationBaseEESaIS4_EE11_S_max_sizeERKS5_
FNDA:18,_ZNSt6vectorISt10shared_ptrIN7testing8internal15ExpectationBaseEESaIS4_EE11_S_max_sizeERKS5_
FN:1773,_ZNSt6vectorIPKvSaIS1_EE11_S_max_sizeERKS2_
FNDA:18,_ZNSt6vectorIPKvSaIS1_EE11_S_max_sizeERKS2_
DA:94,39
DA:95,39
DA:96,39
DA:106,30
DA:108,30
DA:109,30
DA:110,30
DA:111,30
DA:114,10
DA:118,10
DA:119,10
DA:120,10
DA:121,10
DA:122,10
DA:128,29
DA:130,29
DA:131,29
DA:273,67
DA:274,67
DA:273,67
DA:274,67
DA:277,18
DA:278,18
DA:277,18
DA:278,18
DA:285,29
DA:330,29
DA:332,29
DA:333,29
DA:334,29
DA:340,9
DA:343,9
DA:340,9
DA:343,9
DA:347,29
DA:350,29
DA:351,9
DA:352,29
DA:347,38
DA:350,38
DA:351,9
DA:352,38
DA:428,18
DA:433,18
DA:428,18
DA:433,18
DA:441,18
DA:446,18
DA:441,18
DA:446,18
DA:450,18
DA:453,18
DA:450,18
DA:453,18
DA:462,18
DA:466,18
DA:462,18
DA:466,18
DA:484,29
DA:675,29
DA:677,29
DA:678,29
DA:680,29
DA:808,19
DA:809,19
DA:808,28
DA:809,28
DA:817,9
DA:818,9
DA:817,2
DA:818,2
DA:826,28
DA:827,28
DA:826,37
DA:827,37
DA:835,9
DA:836,9
DA:835,2
DA:836,2
DA:853,9
DA:854,9
DA:853,2
DA:854,2
DA:871,9
DA:872,9
DA:871,2
DA:872,2
DA:915,54
DA:916,54
DA:915,46
DA:916,46
DA:920,18
DA:921,18
DA:920,18
DA:921,18
DA:1058,9
DA:1061,9
DA:1058,0
DA:1061,0
DA:1184,9
DA:1186,9
DA:1189,0
DA:1191,0
DA:1195,9
DA:1196,9
DA:1200,9
DA:1201,9
DA:1477,10
DA:1483,10
DA:1484,10
DA:1486,10
DA:1753,9
DA:1755,9
DA:1756,0
DA:1758,9
DA:1759,9
DA:1753,9
DA:1755,9
DA:1756,0
DA:1758,9
DA:1759,9
DA:1773,18
DA:1778,18
DA:1780,18
DA:1781,18
DA:1773,18
DA:1778,18
DA:1780,18
DA:1781,18
end_of_record
SF:/mnt/c/Users/user/Desktop/TTECH/my_project/build/_deps/googletest-src/googlemock/include/gmock/gmock-matchers.h
FN:305,_ZN7testing25StringMatchResultListenerC2Ev
FNDA:0,_ZN7testing25StringMatchResultListenerC2Ev
FN:308,_ZNK7testing25StringMatchResultListener3strB5cxx11Ev
FNDA:0,_ZNK7testing25StringMatchResultListener3strB5cxx11Ev
FN:562,_ZN7testing8internal15PrintIfNotEmptyERKNSt7__cxx1112basic_stringIcSt11char_traitsIcESaIcEEEPSo
FNDA:0,_ZN7testing8internal15PrintIfNotEmptyERKNSt7__cxx1112basic_stringIcSt11char_traitsIcESaIcEEEPSo
FN:616,_ZN7testing8internal11TuplePrefixILm1EE7MatchesISt5tupleIJNS_7MatcherIiEEEES4_IJiEEEEbRKT_RKT0_
FNDA:4,_ZN7testing8internal11TuplePrefixILm1EE7MatchesISt5tupleIJNS_7MatcherIiEEEES4_IJiEEEEbRKT_RKT0_
FN:616,_ZN7testing8internal11TuplePrefixILm3EE7MatchesISt5tupleIJNS_7MatcherIiEES6_S6_EES4_IJiiiEEEEbRKT_RKT0_
FNDA:5,_ZN7testing8internal11TuplePrefixILm3EE7MatchesISt5tupleIJNS_7MatcherIiEES6_S6_EES4_IJiiiEEEEbRKT_RKT0_
FN:616,_ZN7testing8internal11TuplePrefixILm2EE7MatchesISt5tupleIJNS_7MatcherIiEES6_S6_EES4_IJiiiEEEEbRKT_RKT0_
FNDA:5,_ZN7testing8internal11TuplePrefixILm2EE7MatchesISt5tupleIJNS_7MatcherIiEES6_S6_EES4_IJiiiEEEEbRKT_RKT0_
FN:616,_ZN7testing8internal11TuplePrefixILm1EE7MatchesISt5tupleIJNS_7MatcherIiEES6_S6_EES4_IJiiiEEEEbRKT_RKT0_
FNDA:5,_ZN7testing8internal11TuplePrefixILm1EE7MatchesISt5tupleIJNS_7MatcherIiEES6_S6_EES4_IJiiiEEEEbRKT_RKT0_
FN:627,_ZN7testing8internal11TuplePrefixILm1EE22ExplainMatchFailuresToISt5tupleIJNS_7MatcherIiEEEES4_IJiEEEEvRKT_RKT0_PSo
FNDA:0,_ZN7testing8internal11TuplePrefixILm1EE22ExplainMatchFailuresToISt5tupleIJNS_7MatcherIiEEEES4_IJiEEEEvRKT_RKT0_PSo
FN:627,_ZN7testing8internal11TuplePrefixILm3EE22ExplainMatchFailuresToISt5tupleIJNS_7MatcherIiEES6_S6_EES4_IJiiiEEEEvRKT_RKT0_PSo
FNDA:0,_ZN7testing8internal11TuplePrefixILm3EE22ExplainMatchFailuresToISt5tupleIJNS_7MatcherIiEES6_S6_EES4_IJiiiEEEEvRKT_RKT0_PSo
FN:627,_ZN7testing8internal11TuplePrefixILm2EE22ExplainMatchFailuresToISt5tupleIJNS_7MatcherIiEES6_S6_EES4_IJiiiEEEEvRKT_RKT0_PSo
FNDA:0,_ZN7testing8internal11TuplePrefixILm2EE22ExplainMatchFailuresToISt5tupleIJNS_7MatcherIiEES6_S6_EES4_IJiiiEEEEvRKT_RKT0_PSo
FN:627,_ZN7testing8internal11TuplePrefixILm1EE22ExplainMatchFailuresToISt5tupleIJNS_7MatcherIiEES6_S6_EES4_IJiiiEEEEvRKT_RKT0_PSo
FNDA:0,_ZN7testing8internal11TuplePrefixILm1EE22ExplainMatchFailuresToISt5tupleIJNS_7MatcherIiEES6_S6_EES4_IJiiiEEEEvRKT_RKT0_PSo
FN:661,_ZN7testing8internal11TuplePrefixILm0EE7MatchesISt5tupleIJNS_7MatcherIiEEEES4_IJiEEEEbRKT_RKT0_
FNDA:4,_ZN7testing8internal11TuplePrefixILm0EE7MatchesISt5tupleIJNS_7MatcherIiEEEES4_IJiEEEEbRKT_RKT0_
FN:661,_ZN7testing8internal11TuplePrefixILm0EE7MatchesISt5tupleIJNS_7MatcherIiEES6_S6_EES4_IJiiiEEEEbRKT_RKT0_
FNDA:5,_ZN7testing8internal11TuplePrefixILm0EE7MatchesISt5tupleIJNS_7MatcherIiEES6_S6_EES4_IJiiiEEEEbRKT_RKT0_
FN:667,_ZN7testing8internal11TuplePrefixILm0EE22ExplainMatchFailuresToISt5tupleIJNS_7MatcherIiEEEES4_IJiEEEEvRKT_RKT0_PSo
FNDA:0,_ZN7testing8internal11TuplePrefixILm0EE22ExplainMatchFailuresToISt5tupleIJNS_7MatcherIiEEEES4_IJiEEEEvRKT_RKT0_PSo
FN:667,_ZN7testing8internal11TuplePrefixILm0EE22ExplainMatchFailuresToISt5tupleIJNS_7MatcherIiEES6_S6_EES4_IJiiiEEEEvRKT_RKT0_PSo
FNDA:0,_ZN7testing8internal11TuplePrefixILm0EE22ExplainMatchFailuresToISt5tupleIJNS_7MatcherIiEES6_S6_EES4_IJiiiEEEEvRKT_RKT0_PSo
FN:678,_ZN7testing8internal12TupleMatchesISt5tupleIJNS_7MatcherIiEEEES2_IJiEEEEbRKT_RKT0_
FNDA:4,_ZN7testing8internal12TupleMatchesISt5tupleIJNS_7MatcherIiEEEES2_IJiEEEEbRKT_RKT0_
FN:678,_ZN7testing8internal12TupleMatchesISt5tupleIJNS_7MatcherIiEES4_S4_EES2_IJiiiEEEEbRKT_RKT0_
FNDA:5,_ZN7testing8internal12TupleMatchesISt5tupleIJNS_7MatcherIiEES4_S4_EES2_IJiiiEEEEbRKT_RKT0_
FN:692,_ZN7testing8internal26ExplainMatchFailureTupleToISt5tupleIJNS_7MatcherIiEEEES2_IJiEEEEvRKT_RKT0_PSo
FNDA:0,_ZN7testing8internal26ExplainMatchFailureTupleToISt5tupleIJNS_7MatcherIiEEEES2_IJiEEEEvRKT_RKT0_PSo
FN:692,_ZN7testing8internal26ExplainMatchFailureTupleToISt5tupleIJNS_7MatcherIiEES4_S4_EES2_IJiiiEEEEvRKT_RKT0_PSo
FNDA:0,_ZN7testing8internal26ExplainMatchFailureTupleToISt5tupleIJNS_7MatcherIiEES4_S4_EES2_IJiiiEEEEvRKT_RKT0_PSo
FN:747,_ZNK7testing8internal15AnythingMatcher15MatchAndExplainISt5tupleIJiEEEEbRKT_PSo
FNDA:4,_ZNK7testing8internal15AnythingMatcher15MatchAndExplainISt5tupleIJiEEEEbRKT_PSo
FN:747,_ZNK7testing8internal15AnythingMatcher15MatchAndExplainISt5tupleIJiiiEEEEbRKT_PSo
FNDA:5,_ZNK7testing8internal15AnythingMatcher15MatchAndExplainISt5tupleIJiiiEEEEbRKT_PSo
FN:747,_ZNK7testing8internal15AnythingMatcher15MatchAndExplainIiEEbRKT_PSo
FNDA:4,_ZNK7testing8internal15AnythingMatcher15MatchAndExplainIiEEbRKT_PSo
FN:750,_ZNK7testing8internal15AnythingMatcher10DescribeToEPSo
FNDA:0,_ZNK7testing8internal15AnythingMatcher10DescribeToEPSo
FN:751,_ZNK7testing8internal15AnythingMatcher18DescribeNegationToEPSo
FNDA:0,_ZNK7testing8internal15AnythingMatcher18DescribeNegationToEPSo
FN:4249,_ZN7testing1AIRKSt5tupleIJiiiEEEENS_7MatcherIT_EEv
FNDA:5,_ZN7testing1AIRKSt5tupleIJiiiEEEENS_7MatcherIT_EEv
FN:4249,_ZN7testing1AIRKSt5tupleIJiEEEENS_7MatcherIT_EEv
FNDA:4,_ZN7testing1AIRKSt5tupleIJiEEEENS_7MatcherIT_EEv
DA:305,0
DA:308,0
DA:562,0
DA:564,0
DA:565,0
DA:567,0
DA:616,5
DA:618,10
DA:619,10
DA:616,5
DA:618,10
DA:619,10
DA:616,4
DA:618,8
DA:619,8
DA:616,5
DA:618,10
DA:619,10
DA:627,0
DA:631,0
DA:635,0
DA:636,0
DA:638,0
DA:639,0
DA:640,0
DA:641,0
DA:642,0
DA:643,0
DA:649,0
DA:650,0
DA:651,0
DA:653,0
DA:627,0
DA:631,0
DA:635,0
DA:636,0
DA:638,0
DA:639,0
DA:640,0
DA:641,0
DA:642,0
DA:643,0
DA:649,0
DA:650,0
DA:651,0
DA:653,0
DA:627,0
DA:631,0
DA:635,0
DA:636,0
DA:638,0
DA:639,0
DA:640,0
DA:641,0
DA:642,0
DA:643,0
DA:649,0
DA:650,0
DA:651,0
DA:653,0
DA:627,0
DA:631,0
DA:635,0
DA:636,0
DA:638,0
DA:639,0
DA:640,0
DA:641,0
DA:642,0
DA:643,0
DA:649,0
DA:650,0
DA:651,0
DA:653,0
DA:661,5
DA:663,5
DA:661,4
DA:663,4
DA:667,0
DA:669,0
DA:667,0
DA:669,0
DA:678,4
DA:685,4
DA:686,4
DA:678,5
DA:685,5
DA:686,5
DA:692,0
DA:694,0
DA:696,0
DA:692,0
DA:694,0
DA:696,0
DA:747,4
DA:748,4
DA:747,5
DA:748,5
DA:747,4
DA:748,4
DA:750,0
DA:751,0
DA:755,0
DA:756,0
DA:4249,4
DA:4250,4
DA:4249,5
DA:4250,5
end_of_record
SF:/usr/include/c++/9/bits/stl_set.h
FN:167,_ZNSt3setIN7testing11ExpectationENS1_4LessESaIS1_EEC2Ev
FNDA:9,_ZNSt3setIN7testing11ExpectationENS1_4LessESaIS1_EEC2Ev
FN:281,_ZNSt3setIN7testing11ExpectationENS1_4LessESaIS1_EED2Ev
FNDA:9,_ZNSt3setIN7testing11ExpectationENS1_4LessESaIS1_EED2Ev
FN:344,_ZNKSt3setIN7testing11ExpectationENS1_4LessESaIS1_EE5beginEv
FNDA:18,_ZNKSt3setIN7testing11ExpectationENS1_4LessESaIS1_EE5beginEv
FN:353,_ZNKSt3setIN7testing11ExpectationENS1_4LessESaIS1_EE3endEv
FNDA:18,_ZNKSt3setIN7testing11ExpectationENS1_4LessESaIS1_EE3endEv
DA:167,9
DA:281,9
DA:344,18
DA:345,18
DA:353,18
DA:354,18
end_of_record
SF:/usr/include/c++/9/bits/stl_uninitialized.h
FN:76,_ZNSt20__uninitialized_copyILb0EE13__uninit_copyISt13move_iteratorIPSt10shared_ptrIN7testing8internal15ExpectationBaseEEES8_EET0_T_SB_SA_
FNDA:0,_ZNSt20__uninitialized_copyILb0EE13__uninit_copyISt13move_iteratorIPSt10shared_ptrIN7testing8internal15ExpectationBaseEEES8_EET0_T_SB_SA_
FN:99,_ZNSt20__uninitialized_copyILb1EE13__uninit_copyISt13move_iteratorIPPKvES5_EET0_T_S8_S7_
FNDA:0,_ZNSt20__uninitialized_copyILb1EE13__uninit_copyISt13move_iteratorIPPKvES5_EET0_T_S8_S7_
FN:115,_ZSt18uninitialized_copyISt13move_iteratorIPPKvES3_ET0_T_S6_S5_
FNDA:0,_ZSt18uninitialized_copyISt13move_iteratorIPPKvES3_ET0_T_S6_S5_
FN:115,_ZSt18uninitialized_copyISt13move_iteratorIPSt10shared_ptrIN7testing8internal15ExpectationBaseEEES6_ET0_T_S9_S8_
FNDA:0,_ZSt18uninitialized_copyISt13move_iteratorIPSt10shared_ptrIN7testing8internal15ExpectationBaseEEES6_ET0_T_S9_S8_
FN:305,_ZSt22__uninitialized_copy_aISt13move_iteratorIPPKvES3_S2_ET0_T_S6_S5_RSaIT1_E
FNDA:0,_ZSt22__uninitialized_copy_aISt13move_iteratorIPPKvES3_S2_ET0_T_S6_S5_RSaIT1_E
FN:305,_ZSt22__uninitialized_copy_aISt13move_iteratorIPSt10shared_ptrIN7testing8internal15ExpectationBaseEEES6_S5_ET0_T_S9_S8_RSaIT1_E
FNDA:0,_ZSt22__uninitialized_copy_aISt13move_iteratorIPSt10shared_ptrIN7testing8internal15ExpectationBaseEEES6_S5_ET0_T_S9_S8_RSaIT1_E
FN:323,_ZSt34__uninitialized_move_if_noexcept_aIPPKvS2_SaIS1_EET0_T_S5_S4_RT1_
FNDA:0,_ZSt34__uninitialized_move_if_noexcept_aIPPKvS2_SaIS1_EET0_T_S5_S4_RT1_
FN:323,_ZSt34__uninitialized_move_if_noexcept_aIPSt10shared_ptrIN7testing8internal15ExpectationBaseEES5_SaIS4_EET0_T_S8_S7_RT1_
FNDA:0,_ZSt34__uninitialized_move_if_noexcept_aIPSt10shared_ptrIN7testing8internal15ExpectationBaseEES5_SaIS4_EET0_T_S8_S7_RT1_
FN:905,_ZSt19__relocate_object_aISt10shared_ptrIN7testing8internal15ExpectationBaseEES4_SaIS4_EEvPT_PT0_RT1_
FNDA:0,_ZSt19__relocate_object_aISt10shared_ptrIN7testing8internal15ExpectationBaseEES4_SaIS4_EEvPT_PT0_RT1_
FN:924,_ZSt14__relocate_a_1IPKvS1_ENSt9enable_ifIXsrSt24__is_bitwise_relocatableIT_vE5valueEPS4_E4typeES6_S6_S6_RSaIT0_E
FNDA:18,_ZSt14__relocate_a_1IPKvS1_ENSt9enable_ifIXsrSt24__is_bitwise_relocatableIT_vE5valueEPS4_E4typeES6_S6_S6_RSaIT0_E
FN:936,_ZSt14__relocate_a_1IPSt10shared_ptrIN7testing8internal15ExpectationBaseEES5_SaIS4_EET0_T_S8_S7_RT1_
FNDA:18,_ZSt14__relocate_a_1IPSt10shared_ptrIN7testing8internal15ExpectationBaseEES5_SaIS4_EET0_T_S8_S7_RT1_
FN:958,_ZSt12__relocate_aIPPKvS2_SaIS1_EET0_T_S5_S4_RT1_
FNDA:18,_ZSt12__relocate_aIPPKvS2_SaIS1_EET0_T_S5_S4_RT1_
FN:958,_ZSt12__relocate_aIPSt10shared_ptrIN7testing8internal15ExpectationBaseEES5_SaIS4_EET0_T_S8_S7_RT1_
FNDA:18,_ZSt12__relocate_aIPSt10shared_ptrIN7testing8internal15ExpectationBaseEES5_SaIS4_EET0_T_S8_S7_RT1_
DA:76,0
DA:79,0
DA:82,0
DA:83,0
DA:84,0
DA:86,0
DA:88,0
DA:89,0
DA:99,0
DA:101,0
DA:115,0
DA:134,0
DA:140,0
DA:115,0
DA:134,0
DA:140,0
DA:305,0
DA:307,0
DA:305,0
DA:307,0
DA:323,0
DA:329,0
DA:330,0
DA:323,0
DA:329,0
DA:330,0
DA:905,0
DA:912,0
DA:913,0
DA:914,0
DA:924,18
DA:927,18
DA:928,18
DA:929,0
DA:930,18
DA:936,18
DA:948,18
DA:949,18
DA:950,0
DA:952,18
DA:958,18
DA:964,18
DA:966,18
DA:958,18
DA:964,18
DA:966,18
end_of_record
SF:/mnt/c/Users/user/Desktop/TTECH/my_project/build/_deps/googletest-src/googletest/include/gtest/internal/gtest-port.h
FN:970,_ZN7testing8internal8GTestLog9GetStreamEv
FNDA:0,_ZN7testing8internal8GTestLog9GetStreamEv
FN:1068,_ZN7testing8internal13ImplicitCast_IiEET_S2_
FNDA:9,_ZN7testing8internal13ImplicitCast_IiEET_S2_
FN:1119,_ZN7testing8internal27CheckedDowncastToActualTypeINS0_11ThreadLocalIPNS_8SequenceEE11ValueHolderENS0_26ThreadLocalValueHolderBaseEEEPT_PT0_
FNDA:4,_ZN7testing8internal27CheckedDowncastToActualTypeINS0_11ThreadLocalIPNS_8SequenceEE11ValueHolderENS0_26ThreadLocalValueHolderBaseEEEPT_PT0_
FN:1622,_ZN7testing8internal9MutexBase4LockEv
FNDA:112,_ZN7testing8internal9MutexBase4LockEv
FN:1629,_ZN7testing8internal9MutexBase6UnlockEv
FNDA:112,_ZN7testing8internal9MutexBase6UnlockEv
FN:1640,_ZNK7testing8internal9MutexBase10AssertHeldEv
FNDA:156,_ZNK7testing8internal9MutexBase10AssertHeldEv
FN:1697,_ZN7testing8internal14GTestMutexLockC2EPNS0_9MutexBaseE
FNDA:92,_ZN7testing8internal14GTestMutexLockC2EPNS0_9MutexBaseE
FN:1699,_ZN7testing8internal14GTestMutexLockD2Ev
FNDA:92,_ZN7testing8internal14GTestMutexLockD2Ev
FN:1747,_ZNK7testing8internal11ThreadLocalIPNS_8SequenceEE7pointerEv
FNDA:9,_ZNK7testing8internal11ThreadLocalIPNS_8SequenceEE7pointerEv
FN:1748,_ZNK7testing8internal11ThreadLocalIPNS_8SequenceEE3getEv
FNDA:9,_ZNK7testing8internal11ThreadLocalIPNS_8SequenceEE3getEv
FN:1758,_ZN7testing8internal11ThreadLocalIPNS_8SequenceEE11ValueHolder7pointerEv
FNDA:9,_ZN7testing8internal11ThreadLocalIPNS_8SequenceEE11ValueHolder7pointerEv
FN:1775,_ZNK7testing8internal11ThreadLocalIPNS_8SequenceEE16GetOrCreateValueEv
FNDA:9,_ZNK7testing8internal11ThreadLocalIPNS_8SequenceEE16GetOrCreateValueEv
DA:970,0
DA:1068,9
DA:1069,9
DA:1119,4
DA:1121,4
DA:1127,4
DA:1622,112
DA:1623,112
DA:1624,112
DA:1625,112
DA:1626,112
DA:1629,112
DA:1634,112
DA:1635,112
DA:1636,112
DA:1640,156
DA:1641,156
DA:1642,0
DA:1643,156
DA:1697,92
DA:1699,92
DA:1747,9
DA:1748,9
DA:1758,9
DA:1775,9
DA:1777,9
DA:1778,9
DA:1779,4
DA:1782,5
DA:1783,5
DA:1784,5
DA:1785,5
end_of_record
SF:/usr/include/c++/9/bits/stl_iterator.h
FN:137,_ZNSt16reverse_iteratorIN9__gnu_cxx17__normal_iteratorIPKSt10shared_ptrIN7testing8internal15ExpectationBaseEESt6vectorIS6_SaIS6_EEEEEC2ESC_
FNDA:18,_ZNSt16reverse_iteratorIN9__gnu_cxx17__normal_iteratorIPKSt10shared_ptrIN7testing8internal15ExpectationBaseEESt6vectorIS6_SaIS6_EEEEEC2ESC_
FN:137,_ZNSt16reverse_iteratorIN9__gnu_cxx17__normal_iteratorIPKPKvSt6vectorIS3_SaIS3_EEEEEC2ES9_
FNDA:4,_ZNSt16reverse_iteratorIN9__gnu_cxx17__normal_iteratorIPKPKvSt6vectorIS3_SaIS3_EEEEEC2ES9_
FN:163,_ZNKSt16reverse_iteratorIN9__gnu_cxx17__normal_iteratorIPKPKvSt6vectorIS3_SaIS3_EEEEE4baseEv
FNDA:4,_ZNKSt16reverse_iteratorIN9__gnu_cxx17__normal_iteratorIPKPKvSt6vectorIS3_SaIS3_EEEEE4baseEv
FN:163,_ZNKSt16reverse_iteratorIN9__gnu_cxx17__normal_iteratorIPKSt10shared_ptrIN7testing8internal15ExpectationBaseEESt6vectorIS6_SaIS6_EEEEE4baseEv
FNDA:18,_ZNKSt16reverse_iteratorIN9__gnu_cxx17__normal_iteratorIPKSt10shared_ptrIN7testing8internal15ExpectationBaseEESt6vectorIS6_SaIS6_EEEEE4baseEv
FN:177,_ZNKSt16reverse_iteratorIN9__gnu_cxx17__normal_iteratorIPKPKvSt6vectorIS3_SaIS3_EEEEEdeEv
FNDA:0,_ZNKSt16reverse_iteratorIN9__gnu_cxx17__normal_iteratorIPKPKvSt6vectorIS3_SaIS3_EEEEEdeEv
FN:189,_ZNKSt16reverse_iteratorIN9__gnu_cxx17__normal_iteratorIPKSt10shared_ptrIN7testing8internal15ExpectationBaseEESt6vectorIS6_SaIS6_EEEEEptEv
FNDA:9,_ZNKSt16reverse_iteratorIN9__gnu_cxx17__normal_iteratorIPKSt10shared_ptrIN7testing8internal15ExpectationBaseEESt6vectorIS6_SaIS6_EEEEEptEv
FN:204,_ZNSt16reverse_iteratorIN9__gnu_cxx17__normal_iteratorIPKPKvSt6vectorIS3_SaIS3_EEEEEppEv
FNDA:0,_ZNSt16reverse_iteratorIN9__gnu_cxx17__normal_iteratorIPKPKvSt6vectorIS3_SaIS3_EEEEEppEv
FN:204,_ZNSt16reverse_iteratorIN9__gnu_cxx17__normal_iteratorIPKSt10shared_ptrIN7testing8internal15ExpectationBaseEESt6vectorIS6_SaIS6_EEEEEppEv
FNDA:0,_ZNSt16reverse_iteratorIN9__gnu_cxx17__normal_iteratorIPKSt10shared_ptrIN7testing8internal15ExpectationBaseEESt6vectorIS6_SaIS6_EEEEEppEv
FN:309,_ZNSt16reverse_iteratorIN9__gnu_cxx17__normal_iteratorIPKSt10shared_ptrIN7testing8internal15ExpectationBaseEESt6vectorIS6_SaIS6_EEEEE13_S_to_pointerISC_EES8_T_
FNDA:9,_ZNSt16reverse_iteratorIN9__gnu_cxx17__normal_iteratorIPKSt10shared_ptrIN7testing8internal15ExpectationBaseEESt6vectorIS6_SaIS6_EEEEE13_S_to_pointerISC_EES8_T_
FN:325,_ZSteqIN9__gnu_cxx17__normal_iteratorIPKSt10shared_ptrIN7testing8internal15ExpectationBaseEESt6vectorIS6_SaIS6_EEEEEbRKSt16reverse_iteratorIT_ESH_
FNDA:9,_ZSteqIN9__gnu_cxx17__normal_iteratorIPKSt10shared_ptrIN7testing8internal15ExpectationBaseEESt6vectorIS6_SaIS6_EEEEEbRKSt16reverse_iteratorIT_ESH_
FN:325,_ZSteqIN9__gnu_cxx17__normal_iteratorIPKPKvSt6vectorIS3_SaIS3_EEEEEbRKSt16reverse_iteratorIT_ESE_
FNDA:2,_ZSteqIN9__gnu_cxx17__normal_iteratorIPKPKvSt6vectorIS3_SaIS3_EEEEEbRKSt16reverse_iteratorIT_ESE_
FN:337,_ZStneIN9__gnu_cxx17__normal_iteratorIPKSt10shared_ptrIN7testing8internal15ExpectationBaseEESt6vectorIS6_SaIS6_EEEEEbRKSt16reverse_iteratorIT_ESH_
FNDA:9,_ZStneIN9__gnu_cxx17__normal_iteratorIPKSt10shared_ptrIN7testing8internal15ExpectationBaseEESt6vectorIS6_SaIS6_EEEEEbRKSt16reverse_iteratorIT_ESH_
FN:337,_ZStneIN9__gnu_cxx17__normal_iteratorIPKPKvSt6vectorIS3_SaIS3_EEEEEbRKSt16reverse_iteratorIT_ESE_
FNDA:2,_ZStneIN9__gnu_cxx17__normal_iteratorIPKPKvSt6vectorIS3_SaIS3_EEEEEbRKSt16reverse_iteratorIT_ESE_
FN:803,_ZN9__gnu_cxx17__normal_iteratorIPSt10shared_ptrIN7testing8internal15ExpectationBaseEESt6vectorIS5_SaIS5_EEEC2ERKS6_
FNDA:47,_ZN9__gnu_cxx17__normal_iteratorIPSt10shared_ptrIN7testing8internal15ExpectationBaseEESt6vectorIS5_SaIS5_EEEC2ERKS6_
FN:803,_ZN9__gnu_cxx17__normal_iteratorIPKSt10shared_ptrIN7testing8internal15ExpectationBaseEESt6vectorIS5_SaIS5_EEEC2ERKS7_
FNDA:18,_ZN9__gnu_cxx17__normal_iteratorIPKSt10shared_ptrIN7testing8internal15ExpectationBaseEESt6vectorIS5_SaIS5_EEEC2ERKS7_
FN:803,_ZN9__gnu_cxx17__normal_iteratorIPPKvSt6vectorIS2_SaIS2_EEEC2ERKS3_
FNDA:65,_ZN9__gnu_cxx17__normal_iteratorIPPKvSt6vectorIS2_SaIS2_EEEC2ERKS3_
FN:803,_ZN9__gnu_cxx17__normal_iteratorIPKPKvSt6vectorIS2_SaIS2_EEEC2ERKS4_
FNDA:4,_ZN9__gnu_cxx17__normal_iteratorIPKPKvSt6vectorIS2_SaIS2_EEEC2ERKS4_
FN:808,_ZN9__gnu_cxx17__normal_iteratorIPKPKvSt6vectorIS2_SaIS2_EEEC2IPS2_EERKNS0_IT_NS_11__enable_ifIXsrSt10__are_sameISB_SA_E7__valueES7_E6__typeEEE
FNDA:19,_ZN9__gnu_cxx17__normal_iteratorIPKPKvSt6vectorIS2_SaIS2_EEEC2IPS2_EERKNS0_IT_NS_11__enable_ifIXsrSt10__are_sameISB_SA_E7__valueES7_E6__typeEEE
FN:816,_ZNK9__gnu_cxx17__normal_iteratorIPKPKvSt6vectorIS2_SaIS2_EEEdeEv
FNDA:9,_ZNK9__gnu_cxx17__normal_iteratorIPKPKvSt6vectorIS2_SaIS2_EEEdeEv
FN:820,_ZNK9__gnu_cxx17__normal_iteratorIPKSt10shared_ptrIN7testing8internal15ExpectationBaseEESt6vectorIS5_SaIS5_EEEptEv
FNDA:18,_ZNK9__gnu_cxx17__normal_iteratorIPKSt10shared_ptrIN7testing8internal15ExpectationBaseEESt6vectorIS5_SaIS5_EEEptEv
FN:824,_ZN9__gnu_cxx17__normal_iteratorIPKPKvSt6vectorIS2_SaIS2_EEEppEv
FNDA:9,_ZN9__gnu_cxx17__normal_iteratorIPKPKvSt6vectorIS2_SaIS2_EEEppEv
FN:836,_ZN9__gnu_cxx17__normal_iteratorIPKPKvSt6vectorIS2_SaIS2_EEEmmEv
FNDA:0,_ZN9__gnu_cxx17__normal_iteratorIPKPKvSt6vectorIS2_SaIS2_EEEmmEv
FN:836,_ZN9__gnu_cxx17__normal_iteratorIPKSt10shared_ptrIN7testing8internal15ExpectationBaseEESt6vectorIS5_SaIS5_EEEmmEv
FNDA:9,_ZN9__gnu_cxx17__normal_iteratorIPKSt10shared_ptrIN7testing8internal15ExpectationBaseEESt6vectorIS5_SaIS5_EEEmmEv
FN:868,_ZNK9__gnu_cxx17__normal_iteratorIPPKvSt6vectorIS2_SaIS2_EEE4baseEv
FNDA:83,_ZNK9__gnu_cxx17__normal_iteratorIPPKvSt6vectorIS2_SaIS2_EEE4baseEv
FN:868,_ZNK9__gnu_cxx17__normal_iteratorIPSt10shared_ptrIN7testing8internal15ExpectationBaseEESt6vectorIS5_SaIS5_EEE4baseEv
FNDA:65,_ZNK9__gnu_cxx17__normal_iteratorIPSt10shared_ptrIN7testing8internal15ExpectationBaseEESt6vectorIS5_SaIS5_EEE4baseEv
FN:868,_ZNK9__gnu_cxx17__normal_iteratorIPKSt10shared_ptrIN7testing8internal15ExpectationBaseEESt6vectorIS5_SaIS5_EEE4baseEv
FNDA:37,_ZNK9__gnu_cxx17__normal_iteratorIPKSt10shared_ptrIN7testing8internal15ExpectationBaseEESt6vectorIS5_SaIS5_EEE4baseEv
FN:868,_ZNK9__gnu_cxx17__normal_iteratorIPKPKvSt6vectorIS2_SaIS2_EEE4baseEv
FNDA:32,_ZNK9__gnu_cxx17__normal_iteratorIPKPKvSt6vectorIS2_SaIS2_EEE4baseEv
FN:890,_ZN9__gnu_cxxeqIPKPKvSt6vectorIS2_SaIS2_EEEEbRKNS_17__normal_iteratorIT_T0_EESD_
FNDA:2,_ZN9__gnu_cxxeqIPKPKvSt6vectorIS2_SaIS2_EEEEbRKNS_17__normal_iteratorIT_T0_EESD_
FN:890,_ZN9__gnu_cxxeqIPKSt10shared_ptrIN7testing8internal15ExpectationBaseEESt6vectorIS5_SaIS5_EEEEbRKNS_17__normal_iteratorIT_T0_EESG_
FNDA:9,_ZN9__gnu_cxxeqIPKSt10shared_ptrIN7testing8internal15ExpectationBaseEESt6vectorIS5_SaIS5_EEEEbRKNS_17__normal_iteratorIT_T0_EESG_
FN:897,_ZN9__gnu_cxxneIPKPKvPS2_St6vectorIS2_SaIS2_EEEEbRKNS_17__normal_iteratorIT_T1_EERKNS9_IT0_SB_EE
FNDA:28,_ZN9__gnu_cxxneIPKPKvPS2_St6vectorIS2_SaIS2_EEEEbRKNS_17__normal_iteratorIT_T1_EERKNS9_IT0_SB_EE
FN:986,_ZN9__gnu_cxxmiIPPKvSt6vectorIS2_SaIS2_EEEENS_17__normal_iteratorIT_T0_E15difference_typeERKSA_SD_
FNDA:9,_ZN9__gnu_cxxmiIPPKvSt6vectorIS2_SaIS2_EEEENS_17__normal_iteratorIT_T0_E15difference_typeERKSA_SD_
FN:986,_ZN9__gnu_cxxmiIPSt10shared_ptrIN7testing8internal15ExpectationBaseEESt6vectorIS5_SaIS5_EEEENS_17__normal_iteratorIT_T0_E15difference_typeERKSD_SG_
FNDA:9,_ZN9__gnu_cxxmiIPSt10shared_ptrIN7testing8internal15ExpectationBaseEESt6vectorIS5_SaIS5_EEEENS_17__normal_iteratorIT_T0_E15difference_typeERKSD_SG_
FN:1054,_ZNSt13move_iteratorIPSt10shared_ptrIN7testing8internal15ExpectationBaseEEEC2ES5_
FNDA:0,_ZNSt13move_iteratorIPSt10shared_ptrIN7testing8internal15ExpectationBaseEEEC2ES5_
FN:1054,_ZNSt13move_iteratorIPPKvEC2ES2_
FNDA:0,_ZNSt13move_iteratorIPPKvEC2ES2_
FN:1063,_ZNKSt13move_iteratorIPSt10shared_ptrIN7testing8internal15ExpectationBaseEEE4baseEv
FNDA:0,_ZNKSt13move_iteratorIPSt10shared_ptrIN7testing8internal15ExpectationBaseEEE4baseEv
FN:1063,_ZNKSt13move_iteratorIPPKvE4baseEv
FNDA:0,_ZNKSt13move_iteratorIPPKvE4baseEv
FN:1067,_ZNKSt13move_iteratorIPSt10shared_ptrIN7testing8internal15ExpectationBaseEEEdeEv
FNDA:0,_ZNKSt13move_iteratorIPSt10shared_ptrIN7testing8internal15ExpectationBaseEEEdeEv
FN:1075,_ZNSt13move_iteratorIPSt10shared_ptrIN7testing8internal15ExpectationBaseEEEppEv
FNDA:0,_ZNSt13move_iteratorIPSt10shared_ptrIN7testing8internal15ExpectationBaseEEEppEv
FN:1142,_ZSteqIPSt10shared_ptrIN7testing8internal15ExpectationBaseEEEbRKSt13move_iteratorIT_ESA_
FNDA:0,_ZSteqIPSt10shared_ptrIN7testing8internal15ExpectationBaseEEEbRKSt13move_iteratorIT_ESA_
FN:1154,_ZStneIPSt10shared_ptrIN7testing8internal15ExpectationBaseEEEbRKSt13move_iteratorIT_ESA_
FNDA:0,_ZStneIPSt10shared_ptrIN7testing8internal15ExpectationBaseEEEbRKSt13move_iteratorIT_ESA_
FN:1239,_ZSt32__make_move_if_noexcept_iteratorISt10shared_ptrIN7testing8internal15ExpectationBaseEESt13move_iteratorIPS4_EET0_PT_
FNDA:0,_ZSt32__make_move_if_noexcept_iteratorISt10shared_ptrIN7testing8internal15ExpectationBaseEESt13move_iteratorIPS4_EET0_PT_
FN:1239,_ZSt32__make_move_if_noexcept_iteratorIPKvSt13move_iteratorIPS1_EET0_PT_
FNDA:0,_ZSt32__make_move_if_noexcept_iteratorIPKvSt13move_iteratorIPS1_EET0_PT_
FN:1259,_ZSt12__miter_baseIPPKvEDTcl12__miter_basecldtfp_4baseEEESt13move_iteratorIT_E
FNDA:0,_ZSt12__miter_baseIPPKvEDTcl12__miter_basecldtfp_4baseEEESt13move_iteratorIT_E
DA:137,18
DA:137,4
DA:163,18
DA:164,18
DA:163,4
DA:164,4
DA:177,0
DA:179,0
DA:180,0
DA:189,9
DA:193,9
DA:194,9
DA:195,9
DA:204,0
DA:206,0
DA:207,0
DA:204,0
DA:206,0
DA:207,0
DA:309,9
DA:310,9
DA:325,9
DA:327,9
DA:325,2
DA:327,2
DA:337,9
DA:339,9
DA:337,2
DA:339,2
DA:803,18
DA:804,18
DA:803,4
DA:804,4
DA:803,47
DA:804,47
DA:803,65
DA:804,65
DA:808,19
DA:812,19
DA:816,9
DA:817,9
DA:820,18
DA:821,18
DA:824,9
DA:826,9
DA:827,9
DA:836,9
DA:838,9
DA:839,9
DA:836,0
DA:838,0
DA:839,0
DA:868,37
DA:869,37
DA:868,65
DA:869,65
DA:868,32
DA:869,32
DA:868,83
DA:869,83
DA:890,9
DA:893,9
DA:890,2
DA:893,2
DA:897,28
DA:900,28
DA:986,9
DA:989,9
DA:986,9
DA:989,9
DA:1054,0
DA:1055,0
DA:1054,0
DA:1055,0
DA:1063,0
DA:1064,0
DA:1063,0
DA:1064,0
DA:1067,0
DA:1068,0
DA:1075,0
DA:1077,0
DA:1078,0
DA:1142,0
DA:1144,0
DA:1154,0
DA:1156,0
DA:1239,0
DA:1240,0
DA:1239,0
DA:1240,0
DA:1259,0
DA:1261,0
end_of_record
TN:
SF:/mnt/c/Users/user/Desktop/TTECH/my_project/math_operations.c
FN:10,multiply
FNDA:9,multiply
DA:10,9
DA:13,9
DA:14,9
DA:15,1
DA:20,9
DA:22,9
end_of_record
